Component: ARM Compiler 5.06 update 7 (build 960) Tool: armlink [4d3601]

==============================================================================

Section Cross References

    api_utc.o(.text) refers to strlen.o(.text) for strlen
    api_utc.o(.text) refers to strtok.o(.text) for strtok
    api_utc.o(.text) refers to memcpya.o(.text) for __aeabi_memcpy4
    api_utc.o(.text) refers to strcmp.o(.text) for strcmp
    api_utc.o(.text) refers to printfa.o(i.__0printf) for __2printf
    api_utc.o(.text) refers to atoi.o(.text) for atoi
    api_utc.o(.text) refers to api_utc.o(.constdata) for .constdata
    api_utc.o(.text) refers to main.o(.data) for g_debugLevel
    api_utc.o(.constdata) refers to api_utc.o(.conststring) for .conststring
    fifo.o(.text) refers to port.o(.text) for vPortEnterCritical
    print_monitor.o(.text) refers to queue.o(.text) for xQueueGenericCreate
    print_monitor.o(.text) refers to tasks.o(.text) for vTaskDelay
    print_monitor.o(.text) refers to bsp_uartcomm.o(.text) for UART_sendContinueDMA
    print_monitor.o(.text) refers to port.o(.emb_text) for vPortGetIPSR
    print_monitor.o(.text) refers to print_monitor.o(.data) for g_Queue_uartResend
    i2cforward.o(.text) refers to tasks.o(.text) for vTaskDelay
    eeprom.o(.text) refers to bsp_i2ccomm.o(.text) for I2C_Rx
    eeprom.o(.text) refers to tasks.o(.text) for vTaskDelay
    eeprom.o(.text) refers to strtol.o(.text) for strtol
    eeprom.o(.text) refers to printfa.o(i.__0printf) for __2printf
    eeprom.o(.text) refers to eeprom.o(.data) for I2C1_EEPROM_ADDR
    eeprom.o(.text) refers to eeprom.o(.conststring) for .conststring
    eeprom.o(.text) refers to eeprom.o(.bss) for EEPROM_Buf
    eeprom.o(shellCommand) refers to eeprom.o(.constdata) for shellCmdee
    eeprom.o(shellCommand) refers to eeprom.o(.text) for cmd_EEPROM
    temperatureinside.o(.text) refers to stm32f1xx_hal_adc.o(.text) for HAL_ADC_Init
    temperatureinside.o(.text) refers to main.o(i.Error_Handler) for Error_Handler
    temperatureinside.o(.text) refers to stm32f1xx_hal_adc_ex.o(.text) for HAL_ADCEx_Calibration_Start
    temperatureinside.o(.text) refers to stm32f1xx_hal_dma.o(.text) for HAL_DMA_Init
    temperatureinside.o(.text) refers to dflti.o(.text) for __aeabi_i2d
    temperatureinside.o(.text) refers to ddiv.o(.text) for __aeabi_ddiv
    temperatureinside.o(.text) refers to dadd.o(.text) for __aeabi_dadd
    temperatureinside.o(.text) refers to dfixi.o(.text) for __aeabi_d2iz
    temperatureinside.o(.text) refers to fflti.o(.text) for __aeabi_i2f
    temperatureinside.o(.text) refers to ffixi.o(.text) for __aeabi_f2iz
    temperatureinside.o(.text) refers to f2d.o(.text) for __aeabi_f2d
    temperatureinside.o(.text) refers to d2f.o(.text) for __aeabi_d2f
    temperatureinside.o(.text) refers to printfa.o(i.__0printf) for __2printf
    temperatureinside.o(.text) refers to temperatureinside.o(.bss) for AdcHandle
    temperatureinside.o(.text) refers to temperatureinside.o(.data) for g_adcConvertFinished
    temperatureinside.o(.initcall.1.core.init) refers to temperatureinside.o(.text) for TemperatureInside_Init
    temperatureinside.o(shellCommand) refers to temperatureinside.o(.constdata) for shellCmdtemp
    temperatureinside.o(shellCommand) refers to temperatureinside.o(.text) for GetMcuTemperature
    bsp_uartcomm.o(.text) refers to fifo.o(i.FIFO_Empty) for FIFO_Empty
    bsp_uartcomm.o(.text) refers to fifo.o(.text) for FIFO_Read
    bsp_uartcomm.o(.text) refers to stm32f1xx_hal_uart.o(.text) for HAL_UART_Transmit_IT
    bsp_uartcomm.o(.text) refers to tasks.o(.text) for xTaskGetSchedulerState
    bsp_uartcomm.o(.text) refers to print_monitor.o(.text) for PrintMonitor_PostdMsg
    bsp_uartcomm.o(.text) refers to bsp_uartcomm.o(i.UART_sendByte) for UART_sendByte
    bsp_uartcomm.o(.text) refers to port.o(.text) for vPortEnterCritical
    bsp_uartcomm.o(.text) refers to bsp_usart1.o(.text) for UART1_init
    bsp_uartcomm.o(.text) refers to bsp_uartcomm.o(.data) for g_pUARTSHandler
    bsp_gpio.o(.text) refers to stm32f1xx_hal_gpio.o(.text) for HAL_GPIO_Init
    bsp_gpio.o(.text) refers to printfa.o(i.__0printf) for __2printf
    bsp_gpio.o(.text) refers to bsp_gpio.o(.constdata) for g_gpioConfigComm
    bsp_gpio.o(.constdata) refers to bsp_gpio.o(.conststring) for .conststring
    bsp_usart1.o(.text) refers to fifo.o(.text) for FIFO_Init
    bsp_usart1.o(.text) refers to bsp_uartcomm.o(.text) for com_registHandler
    bsp_usart1.o(.text) refers to stm32f1xx_hal_uart.o(.text) for HAL_UART_Init
    bsp_usart1.o(.text) refers to print_monitor.o(.text) for PrintMonitorInit
    bsp_usart1.o(.text) refers to fifo.o(i.FIFO_Empty) for FIFO_Empty
    bsp_usart1.o(.text) refers to bsp_usart1.o(.bss) for g_buffSend
    bsp_usart1.o(.text) refers to bsp_usart1.o(.data) for g_UARTPara
    bsp_i2c.o(.text) refers to stm32f1xx_hal_i2c.o(.text) for HAL_I2C_Init
    bsp_i2c.o(.text) refers to main.o(i.Error_Handler) for Error_Handler
    bsp_i2c.o(.text) refers to tasks.o(.text) for vTaskDelay
    bsp_i2c.o(.text) refers to stm32f1xx_hal_cortex.o(.text) for HAL_NVIC_EnableIRQ
    bsp_i2c.o(.text) refers to main.o(.bss) for hi2c1
    initcall.o(.initcall.2.app.init) refers to initcall.o(.text) for DemoAppInitStart
    pwm.o(.text) refers to printfa.o(i.__0printf) for __2printf
    pwm.o(.text) refers to stm32f1xx_hal_tim.o(.text) for HAL_TIM_PWM_Stop
    pwm.o(.text) refers to bsp_gpio.o(.text) for GPIO_ReInitGPIO
    pwm.o(.text) refers to main.o(i.Error_Handler) for Error_Handler
    pwm.o(.text) refers to stm32f1xx_hal_cortex.o(.text) for HAL_NVIC_SetPriority
    pwm.o(.text) refers to strtol.o(.text) for strtol
    pwm.o(.text) refers to pwm.o(.constdata) for g_tablePreScale
    pwm.o(.text) refers to main.o(.data) for g_debugLevel
    pwm.o(.text) refers to pwm.o(.bss) for PwmCfg
    pwm.o(.text) refers to pwm.o(.data) for dutyPercent
    pwm.o(.initcall.1.core.init) refers to pwm.o(.text) for PWM_Init
    pwm.o(shellCommand) refers to pwm.o(.constdata) for shellCmdpwm
    pwm.o(shellCommand) refers to pwm.o(.text) for pwmShellDuty
    bsp_i2cs0.o(.text) refers to bsp_i2ccomm.o(.text) for Delay_NoSchedue
    bsp_i2cs0.o(.text) refers to stm32f1xx_hal_gpio.o(.text) for HAL_GPIO_WritePin
    bsp_i2cs0.o(.text) refers to queue.o(.text) for xQueueCreateMutex
    bsp_i2cs0.o(.text) refers to memseta.o(.text) for __aeabi_memclr4
    bsp_i2cs0.o(.text) refers to memcpya.o(.text) for __aeabi_memcpy4
    bsp_i2cs0.o(.text) refers to tasks.o(.text) for xTaskGetSchedulerState
    bsp_i2cs0.o(.text) refers to bsp_i2cs0.o(.data) for g_I2CS0_semaphore
    bsp_i2cs0.o(.text) refers to bsp_i2cs0.o(.bss) for GPIO_SDA_Out_I2CS0
    bsp_i2cs0.o(.initcall.2.app.init) refers to bsp_i2cs0.o(.text) for i2cs0_init
    bsp_i2ccomm.o(.text) refers to bsp_i2cs0.o(.text) for i2cs0_write_bytes
    bsp_i2ccomm.o(.text) refers to bsp_i2cs1.o(.text) for i2cs1_write_bytes
    bsp_i2cs1.o(.text) refers to bsp_i2ccomm.o(.text) for Delay_NoSchedue
    bsp_i2cs1.o(.text) refers to stm32f1xx_hal_gpio.o(.text) for HAL_GPIO_WritePin
    bsp_i2cs1.o(.text) refers to queue.o(.text) for xQueueCreateMutex
    bsp_i2cs1.o(.text) refers to memseta.o(.text) for __aeabi_memclr4
    bsp_i2cs1.o(.text) refers to memcpya.o(.text) for __aeabi_memcpy4
    bsp_i2cs1.o(.text) refers to tasks.o(.text) for xTaskGetSchedulerState
    bsp_i2cs1.o(.text) refers to bsp_i2cs1.o(.data) for g_I2CS1_semaphore
    bsp_i2cs1.o(.text) refers to bsp_i2cs1.o(.bss) for GPIO_SDA_Out_I2CS1
    bsp_i2cs1.o(.initcall.2.app.init) refers to bsp_i2cs1.o(.text) for i2cs1_init
    dev_fsm.o(.text) refers to printfa.o(i.__0printf) for __2printf
    dev_fsm.o(.text) refers to stm32f1xx_hal.o(.text) for HAL_GetTick
    dev_fsm.o(.text) refers to main.o(.data) for g_debugLevel
    bsp_key.o(.text) refers to bsp_gpio.o(.text) for GPIO_isPinActive
    bsp_key.o(.text) refers to stm32f1xx_hal.o(.text) for HAL_GetTick
    bsp_key.o(.text) refers to tasks.o(.text) for vTaskDelay
    bsp_key.o(.text) refers to printfa.o(i.__0printf) for __2printf
    bsp_key.o(.text) refers to bsp_key.o(.data) for g_key1
    bsp_key.o(.text) refers to main.o(.data) for g_debugLevel
    bsp_key.o(.initcall.1.core.init) refers to bsp_key.o(.text) for Key_init
    shell.o(.text) refers to strcmp.o(.text) for strcmp
    shell.o(.text) refers to strncmp.o(.text) for strncmp
    shell.o(.text) refers to strlen.o(.text) for strlen
    shell.o(.text) refers to printfa.o(i.__0vsnprintf) for vsnprintf
    shell.o(.text) refers to shell.o(.data) for shellText
    shell.o(.text) refers to shell.o(.bss) for buffer
    shell.o(.text) refers to tasks.o(.text) for vTaskDelay
    shell.o(.text) refers to shell_ext.o(.text) for shellExtRun
    shell.o(.text) refers to stm32f1xx_hal.o(.text) for HAL_GetTick
    shell.o(.text) refers to shell_port.o(.text) for userShellInit
    shell.o(.data) refers to shell.o(.conststring) for .conststring
    shell.o(shellCommand) refers to shell.o(.constdata) for shellCmdDefaultUser
    shell.o(shellCommand) refers to shell.o(.text) for shellUp
    shell_ext.o(.text) refers to fflti.o(.text) for __aeabi_i2f
    shell_ext.o(.text) refers to ffltui.o(.text) for __aeabi_ui2f
    shell_ext.o(.text) refers to fdiv.o(.text) for __aeabi_fdiv
    shell_ext.o(.text) refers to fmul.o(.text) for __aeabi_fmul
    shell_ext.o(.text) refers to shell.o(.text) for shellSeekCommand
    shell_ext.o(.text) refers to memseta.o(.text) for __aeabi_memclr4
    shell_port.o(.text) refers to bsp_uartcomm.o(i.UART_sendByte) for UART_sendByte
    shell_port.o(.text) refers to bsp_uartcomm.o(.text) for UART_getByte
    shell_port.o(.text) refers to shell.o(.text) for shellInit
    shell_port.o(.text) refers to shell_port.o(.bss) for shell
    gpio_shell.o(.text) refers to printfa.o(i.__0printf) for __2printf
    gpio_shell.o(.text) refers to tasks.o(.text) for vTaskDelay
    gpio_shell.o(.text) refers to bsp_gpio.o(.text) for GPIO_printIdexAndName
    gpio_shell.o(.text) refers to strcmp.o(.text) for strcmp
    gpio_shell.o(.text) refers to atoi.o(.text) for atoi
    gpio_shell.o(.text) refers to gpio_shell.o(.constdata) for arglist
    gpio_shell.o(.text) refers to main.o(.data) for g_debugLevel
    gpio_shell.o(.text) refers to gpio_shell.o(.conststring) for .conststring
    gpio_shell.o(.constdata) refers to gpio_shell.o(.text) for setGPIOActiveHandler
    gpio_shell.o(.constdata) refers to gpio_shell.o(.conststring) for .conststring
    gpio_shell.o(shellCommand) refers to gpio_shell.o(.constdata) for shellCmdgpio
    gpio_shell.o(shellCommand) refers to gpio_shell.o(.text) for GPIO_shell
    main.o(.text) refers to stm32f1xx_hal_cortex.o(.text) for HAL_NVIC_SetPriority
    main.o(.text) refers to memseta.o(.text) for __aeabi_memclr4
    main.o(.text) refers to stm32f1xx_hal_rcc.o(.text) for HAL_RCC_OscConfig
    main.o(.text) refers to main.o(i.Error_Handler) for Error_Handler
    main.o(.text) refers to stm32f1xx_hal_rcc_ex.o(.text) for HAL_RCCEx_PeriphCLKConfig
    main.o(.text) refers to api_utc.o(.text) for currentSecsSinceEpoch
    main.o(.text) refers to stm32f1xx_hal.o(.text) for HAL_Init
    main.o(.text) refers to bsp_gpio.o(.text) for GPIO_Init
    main.o(.text) refers to bsp_i2c.o(.text) for i2c_int
    main.o(.text) refers to bsp_uartcomm.o(.text) for UART_init
    main.o(.text) refers to printfa.o(i.__0printf) for __2printf
    main.o(.text) refers to cm_backtrace.o(.text) for cm_backtrace_init
    main.o(.text) refers to initcall.o(.text) for AppCallInit
    main.o(.text) refers to tasks.o(.text) for xTaskCreate
    main.o(.text) refers to heap_4.o(.text) for xPortGetMinimumEverFreeHeapSize
    main.o(.text) refers to main.o(.data) for g_utc_time_firmware_build
    main.o(.text) refers to print_monitor.o(.text) for Task_uartMonitor
    main.o(.text) refers to shell_port.o(.bss) for shell
    main.o(.text) refers to shell.o(.text) for shellTask
    main.o(.data) refers to main.o(.conststring) for .conststring
    main.o(shellCommand) refers to main.o(.constdata) for shellCmdreboot
    main.o(shellCommand) refers to main.o(.text) for Reboot
    stm32f1xx_hal_msp.o(.text) refers to memseta.o(.text) for __aeabi_memclr4
    stm32f1xx_hal_msp.o(.text) refers to stm32f1xx_hal_gpio.o(.text) for HAL_GPIO_Init
    stm32f1xx_hal_msp.o(.text) refers to stm32f1xx_hal_cortex.o(.text) for HAL_NVIC_SetPriority
    stm32f1xx_hal_msp.o(.text) refers to stm32f1xx_hal_dma.o(.text) for HAL_DMA_DeInit
    stm32f1xx_hal_msp.o(.text) refers to main.o(i.Error_Handler) for Error_Handler
    stm32f1xx_hal_msp.o(.text) refers to bsp_usart1.o(.bss) for g_hdma_usart1_tx
    stm32f1xx_it.o(.text) refers to stm32f1xx_hal.o(.text) for HAL_IncTick
    stm32f1xx_it.o(.text) refers to tasks.o(.text) for xTaskGetSchedulerState
    stm32f1xx_it.o(.text) refers to port.o(.text) for xPortSysTickHandler
    stm32f1xx_it.o(.text) refers to stm32f1xx_hal_dma.o(.text) for HAL_DMA_IRQHandler
    stm32f1xx_it.o(.text) refers to bsp_i2c.o(.text) for HAL_I2C_EV_IRQHandler
    stm32f1xx_it.o(.text) refers to stm32f1xx_hal_i2c.o(.text) for HAL_I2C_ER_IRQHandler
    stm32f1xx_it.o(.text) refers to stm32f1xx_hal_uart.o(.text) for HAL_UART_IRQHandler
    stm32f1xx_it.o(.text) refers to bsp_usart1.o(.text) for UART_RxCpltCallback
    stm32f1xx_it.o(.text) refers to bsp_usart1.o(.bss) for g_hdma_usart1_tx
    stm32f1xx_it.o(.text) refers to main.o(.bss) for hdma_i2c1_tx
    stm32f1xx_it.o(.text) refers to temperatureinside.o(.bss) for hdma_adc1
    stm32f1xx_it.o(.text) refers to bsp_usart1.o(.data) for g_uart1Handle
    cm_backtrace.o(.text) refers to strncpy.o(.text) for strncpy
    cm_backtrace.o(.text) refers to printfa.o(i.__0printf) for __2printf
    cm_backtrace.o(.text) refers to tasks.o(.text) for vTaskStackAddr
    cm_backtrace.o(.text) refers to cm_backtrace.o(.emb_text) for __asm___14_cm_backtrace_c_13c737ea__cmb_get_sp
    cm_backtrace.o(.text) refers to memseta.o(.text) for __aeabi_memclr4
    cm_backtrace.o(.text) refers to printfa.o(i.__0sprintf) for __2sprintf
    cm_backtrace.o(.text) refers to cm_backtrace.o(.bss) for fw_name
    cm_backtrace.o(.text) refers to cm_backtrace.o(.data) for main_stack_start_addr
    cm_backtrace.o(.text) refers to cm_backtrace.o(.constdata) for print_info
    cm_backtrace.o(.text) refers to memcpya.o(.text) for __aeabi_memcpy4
    cm_backtrace.o(.text) refers to bsp_uartcomm.o(.data) for g_isPrintUseFifo
    cm_backtrace.o(.text) refers to stm32f1xx_hal_rtc_ex.o(.text) for HAL_RTCEx_BKUPRead
    cm_backtrace.o(.constdata) refers to cm_backtrace.o(.conststring) for .conststring
    cm_backtrace.o(shellCommand) refers to cm_backtrace.o(.constdata) for shellCmdhf
    cm_backtrace.o(shellCommand) refers to cm_backtrace.o(.text) for HardFault_shell
    cmb_fault.o(.text) refers to cm_backtrace.o(.text) for HardFault_Handler_bt
    startup_stm32f103xe.o(RESET) refers to startup_stm32f103xe.o(STACK) for __initial_sp
    startup_stm32f103xe.o(RESET) refers to startup_stm32f103xe.o(.text) for Reset_Handler
    startup_stm32f103xe.o(RESET) refers to stm32f1xx_it.o(.text) for NMI_Handler
    startup_stm32f103xe.o(RESET) refers to cmb_fault.o(.text) for HardFault_Handler
    startup_stm32f103xe.o(RESET) refers to port.o(.emb_text) for SVC_Handler
    startup_stm32f103xe.o(RESET) refers to pwm.o(.text) for TIM1_UP_IRQHandler
    startup_stm32f103xe.o(.text) refers to system_stm32f1xx.o(.text) for SystemInit
    startup_stm32f103xe.o(.text) refers to entry.o(.ARM.Collect$$$$00000000) for __main
    system_stm32f1xx.o(.text) refers to system_stm32f1xx.o(.data) for SystemCoreClock
    system_stm32f1xx.o(.text) refers to system_stm32f1xx.o(.constdata) for AHBPrescTable
    event_groups.o(.text) refers to heap_4.o(.text) for pvPortMalloc
    event_groups.o(.text) refers to list.o(.text) for vListInitialise
    event_groups.o(.text) refers to tasks.o(.text) for vTaskSuspendAll
    event_groups.o(.text) refers to port.o(.text) for vPortEnterCritical
    event_groups.o(.text) refers to timers.o(.text) for xTimerPendFunctionCallFromISR
    queue.o(.text) refers to port.o(.text) for vPortEnterCritical
    queue.o(.text) refers to tasks.o(.text) for xTaskRemoveFromEventList
    queue.o(.text) refers to list.o(.text) for vListInitialise
    queue.o(.text) refers to heap_4.o(.text) for pvPortMalloc
    queue.o(.text) refers to memcpya.o(.text) for __aeabi_memcpy
    queue.o(.text) refers to queue.o(.bss) for xQueueRegistry
    stream_buffer.o(.text) refers to memseta.o(.text) for memset
    stream_buffer.o(.text) refers to heap_4.o(.text) for pvPortMalloc
    stream_buffer.o(.text) refers to port.o(.text) for vPortEnterCritical
    stream_buffer.o(.text) refers to memcpya.o(.text) for __aeabi_memcpy
    stream_buffer.o(.text) refers to tasks.o(.text) for vTaskSetTimeOutState
    tasks.o(.text) refers to list.o(.text) for vListInitialise
    tasks.o(.text) refers to port.o(.text) for vPortEnterCritical
    tasks.o(.text) refers to memseta.o(.text) for __aeabi_memset
    tasks.o(.text) refers to heap_4.o(.text) for pvPortMalloc
    tasks.o(.text) refers to tasks.o(.bss) for pxReadyTasksLists
    tasks.o(.text) refers to tasks.o(.data) for pxDelayedTaskList
    tasks.o(.text) refers to main.o(.text) for vApplicationIdleHook
    tasks.o(.text) refers to timers.o(.text) for xTimerCreateTimerTask
    timers.o(.text) refers to list.o(.text) for vListInsert
    timers.o(.text) refers to tasks.o(.text) for xTaskGetTickCount
    timers.o(.text) refers to heap_4.o(.text) for vPortFree
    timers.o(.text) refers to queue.o(.text) for xQueueReceive
    timers.o(.text) refers to port.o(.text) for vPortEnterCritical
    timers.o(.text) refers to timers.o(.data) for pxOverflowTimerList
    timers.o(.text) refers to timers.o(.bss) for xActiveTimerList1
    heap_4.o(.text) refers to tasks.o(.text) for vTaskSuspendAll
    heap_4.o(.text) refers to port.o(.text) for vPortEnterCritical
    heap_4.o(.text) refers to heap_4.o(.data) for xStart
    heap_4.o(.text) refers to heap_4.o(.bss) for ucHeap
    port.o(.emb_text) refers to tasks.o(.text) for vTaskSwitchContext
    port.o(.emb_text) refers to tasks.o(.data) for pxCurrentTCB
    port.o(.text) refers to main.o(.text) for vPortSetupTimerInterrupt
    port.o(.text) refers to port.o(.emb_text) for __asm___6_port_c_39a90d8d__prvStartFirstTask
    port.o(.text) refers to tasks.o(.text) for xTaskIncrementTick
    port.o(.text) refers to port.o(.data) for uxCriticalNesting
    stm32f1xx_hal_dma.o(.text) refers to stm32f1xx_hal.o(.text) for HAL_GetTick
    stm32f1xx_hal_flash.o(.text) refers to stm32f1xx_hal.o(.text) for HAL_GetTick
    stm32f1xx_hal_flash.o(.text) refers to llushr.o(.text) for __aeabi_llsr
    stm32f1xx_hal_flash.o(.text) refers to stm32f1xx_hal_flash_ex.o(.text) for FLASH_PageErase
    stm32f1xx_hal_flash.o(.text) refers to stm32f1xx_hal_flash.o(.bss) for pFlash
    stm32f1xx_hal_flash.o(.text) refers to stm32f1xx_hal_cortex.o(.text) for HAL_NVIC_SystemReset
    stm32f1xx_hal_flash_ex.o(.text) refers to stm32f1xx_hal_flash.o(.text) for FLASH_WaitForLastOperation
    stm32f1xx_hal_flash_ex.o(.text) refers to stm32f1xx_hal_flash.o(.bss) for pFlash
    stm32f1xx_hal_tim.o(.text) refers to stm32f1xx_hal_dma.o(.text) for HAL_DMA_Start_IT
    stm32f1xx_hal_tim.o(.text) refers to stm32f1xx_hal_tim_ex.o(.text) for HAL_TIMEx_BreakCallback
    stm32f1xx_hal_tim_ex.o(.text) refers to stm32f1xx_hal_tim.o(.text) for TIM_Base_SetConfig
    stm32f1xx_hal_tim_ex.o(.text) refers to stm32f1xx_hal_dma.o(.text) for HAL_DMA_Start_IT
    stm32f1xx_hal_uart.o(.text) refers to stm32f1xx_hal_rcc.o(.text) for HAL_RCC_GetPCLK2Freq
    stm32f1xx_hal_uart.o(.text) refers to stm32f1xx_hal_msp.o(.text) for HAL_UART_MspInit
    stm32f1xx_hal_uart.o(.text) refers to stm32f1xx_hal.o(.text) for HAL_GetTick
    stm32f1xx_hal_uart.o(.text) refers to bsp_usart1.o(.text) for HAL_UART_TxCpltCallback
    stm32f1xx_hal_uart.o(.text) refers to stm32f1xx_hal_dma.o(.text) for HAL_DMA_Start_IT
    stm32f1xx_hal.o(.text) refers to stm32f1xx_hal_cortex.o(.text) for HAL_SYSTICK_Config
    stm32f1xx_hal.o(.text) refers to stm32f1xx_hal_msp.o(.text) for HAL_MspInit
    stm32f1xx_hal.o(.text) refers to stm32f1xx_hal.o(.data) for uwTickFreq
    stm32f1xx_hal.o(.text) refers to system_stm32f1xx.o(.data) for SystemCoreClock
    stm32f1xx_hal_rtc.o(.text) refers to stm32f1xx_hal.o(.text) for HAL_GetTick
    stm32f1xx_hal_rtc.o(.text) refers to stm32f1xx_hal_rcc_ex.o(.text) for HAL_RCCEx_GetPeriphCLKFreq
    stm32f1xx_hal_rtc.o(.text) refers to stm32f1xx_hal_rtc_ex.o(.text) for HAL_RTCEx_Tamper1EventCallback
    stm32f1xx_hal_rcc.o(.text) refers to stm32f1xx_hal.o(.text) for HAL_GetTick
    stm32f1xx_hal_rcc.o(.text) refers to system_stm32f1xx.o(.data) for SystemCoreClock
    stm32f1xx_hal_rcc.o(.text) refers to stm32f1xx_hal.o(.data) for uwTickPrio
    stm32f1xx_hal_rcc.o(.text) refers to memseta.o(.text) for __aeabi_memclr4
    stm32f1xx_hal_rcc.o(.text) refers to stm32f1xx_hal_gpio.o(.text) for HAL_GPIO_Init
    stm32f1xx_hal_rcc.o(.text) refers to stm32f1xx_hal_rcc.o(.constdata) for aPLLMULFactorTable
    stm32f1xx_hal_rcc.o(.text) refers to system_stm32f1xx.o(.constdata) for AHBPrescTable
    stm32f1xx_hal_rcc_ex.o(.text) refers to stm32f1xx_hal.o(.text) for HAL_GetTick
    stm32f1xx_hal_rcc_ex.o(.text) refers to stm32f1xx_hal_rcc.o(.text) for HAL_RCC_GetSysClockFreq
    stm32f1xx_hal_rcc_ex.o(.text) refers to stm32f1xx_hal_rcc_ex.o(.constdata) for aPLLMULFactorTable
    stm32f1xx_hal_i2c.o(.text) refers to stm32f1xx_hal_rcc.o(.text) for HAL_RCC_GetPCLK1Freq
    stm32f1xx_hal_i2c.o(.text) refers to stm32f1xx_hal_msp.o(.text) for HAL_I2C_MspInit
    stm32f1xx_hal_i2c.o(.text) refers to stm32f1xx_hal.o(.text) for HAL_GetTick
    stm32f1xx_hal_i2c.o(.text) refers to tasks.o(.text) for vTaskDelay
    stm32f1xx_hal_i2c.o(.text) refers to system_stm32f1xx.o(.data) for SystemCoreClock
    stm32f1xx_hal_i2c.o(.text) refers to stm32f1xx_hal_dma.o(.text) for HAL_DMA_Start_IT
    stm32f1xx_hal_rtc_ex.o(.text) refers to stm32f1xx_hal.o(.text) for HAL_GetTick
    stm32f1xx_hal_adc.o(.text) refers to stm32f1xx_hal.o(.text) for HAL_GetTick
    stm32f1xx_hal_adc.o(.text) refers to temperatureinside.o(.text) for HAL_ADC_MspInit
    stm32f1xx_hal_adc.o(.text) refers to system_stm32f1xx.o(.data) for SystemCoreClock
    stm32f1xx_hal_adc.o(.text) refers to stm32f1xx_hal_rcc_ex.o(.text) for HAL_RCCEx_GetPeriphCLKFreq
    stm32f1xx_hal_adc.o(.text) refers to stm32f1xx_hal_dma.o(.text) for HAL_DMA_Start_IT
    stm32f1xx_hal_adc.o(.text) refers to stm32f1xx_hal_adc_ex.o(.text) for HAL_ADCEx_InjectedConvCpltCallback
    stm32f1xx_hal_adc_ex.o(.text) refers to stm32f1xx_hal_adc.o(.text) for ADC_ConversionStop_Disable
    stm32f1xx_hal_adc_ex.o(.text) refers to stm32f1xx_hal_rcc_ex.o(.text) for HAL_RCCEx_GetPeriphCLKFreq
    stm32f1xx_hal_adc_ex.o(.text) refers to stm32f1xx_hal.o(.text) for HAL_GetTick
    stm32f1xx_hal_adc_ex.o(.text) refers to system_stm32f1xx.o(.data) for SystemCoreClock
    stm32f1xx_hal_adc_ex.o(.text) refers to memseta.o(.text) for __aeabi_memclr4
    stm32f1xx_hal_adc_ex.o(.text) refers to stm32f1xx_hal_dma.o(.text) for HAL_DMA_Start_IT
    entry.o(.ARM.Collect$$$$00000000) refers (Special) to entry10a.o(.ARM.Collect$$$$0000000F) for __rt_final_cpp
    entry.o(.ARM.Collect$$$$00000000) refers (Special) to entry11a.o(.ARM.Collect$$$$00000011) for __rt_final_exit
    entry.o(.ARM.Collect$$$$00000000) refers (Special) to entry12b.o(.ARM.Collect$$$$0000000E) for __rt_lib_shutdown_fini
    entry.o(.ARM.Collect$$$$00000000) refers (Special) to entry7b.o(.ARM.Collect$$$$00000008) for _main_clock
    entry.o(.ARM.Collect$$$$00000000) refers (Special) to entry8b.o(.ARM.Collect$$$$0000000A) for _main_cpp_init
    entry.o(.ARM.Collect$$$$00000000) refers (Special) to entry9a.o(.ARM.Collect$$$$0000000B) for _main_init
    entry.o(.ARM.Collect$$$$00000000) refers (Special) to entry5.o(.ARM.Collect$$$$00000004) for _main_scatterload
    entry.o(.ARM.Collect$$$$00000000) refers (Special) to entry2.o(.ARM.Collect$$$$00000001) for _main_stk
    strtok.o(.text) refers to strtok.o(.data) for .data
    strtok_r.o(.text) refers to strtok_r.o(.data) for .data
    printfb.o(i.__0fprintf$bare) refers to printfb.o(i._printf_core) for _printf_core
    printfb.o(i.__0fprintf$bare) refers to bsp_uartcomm.o(.text) for fputc
    printfb.o(i.__0printf$bare) refers to printfb.o(i._printf_core) for _printf_core
    printfb.o(i.__0printf$bare) refers to bsp_uartcomm.o(.text) for fputc
    printfb.o(i.__0printf$bare) refers to stdout.o(.data) for __stdout
    printfb.o(i.__0snprintf$bare) refers to printfb.o(i._printf_core) for _printf_core
    printfb.o(i.__0snprintf$bare) refers to printfb.o(i._snputc) for _snputc
    printfb.o(i.__0sprintf$bare) refers to printfb.o(i._printf_core) for _printf_core
    printfb.o(i.__0sprintf$bare) refers to printfb.o(i._sputc) for _sputc
    printfb.o(i.__0vfprintf$bare) refers to printfb.o(i._printf_core) for _printf_core
    printfb.o(i.__0vfprintf$bare) refers to bsp_uartcomm.o(.text) for fputc
    printfb.o(i.__0vprintf$bare) refers to printfb.o(i._printf_core) for _printf_core
    printfb.o(i.__0vprintf$bare) refers to bsp_uartcomm.o(.text) for fputc
    printfb.o(i.__0vprintf$bare) refers to stdout.o(.data) for __stdout
    printfb.o(i.__0vsnprintf$bare) refers to printfb.o(i._printf_core) for _printf_core
    printfb.o(i.__0vsnprintf$bare) refers to printfb.o(i._snputc) for _snputc
    printfb.o(i.__0vsprintf$bare) refers to printfb.o(i._printf_core) for _printf_core
    printfb.o(i.__0vsprintf$bare) refers to printfb.o(i._sputc) for _sputc
    printf0.o(i.__0fprintf$0) refers to printf0.o(i._printf_core) for _printf_core
    printf0.o(i.__0fprintf$0) refers to bsp_uartcomm.o(.text) for fputc
    printf0.o(i.__0printf$0) refers to printf0.o(i._printf_core) for _printf_core
    printf0.o(i.__0printf$0) refers to bsp_uartcomm.o(.text) for fputc
    printf0.o(i.__0printf$0) refers to stdout.o(.data) for __stdout
    printf0.o(i.__0snprintf$0) refers to printf0.o(i._printf_core) for _printf_core
    printf0.o(i.__0snprintf$0) refers to printf0.o(i._snputc) for _snputc
    printf0.o(i.__0sprintf$0) refers to printf0.o(i._printf_core) for _printf_core
    printf0.o(i.__0sprintf$0) refers to printf0.o(i._sputc) for _sputc
    printf0.o(i.__0vfprintf$0) refers to printf0.o(i._printf_core) for _printf_core
    printf0.o(i.__0vfprintf$0) refers to bsp_uartcomm.o(.text) for fputc
    printf0.o(i.__0vprintf$0) refers to printf0.o(i._printf_core) for _printf_core
    printf0.o(i.__0vprintf$0) refers to bsp_uartcomm.o(.text) for fputc
    printf0.o(i.__0vprintf$0) refers to stdout.o(.data) for __stdout
    printf0.o(i.__0vsnprintf$0) refers to printf0.o(i._printf_core) for _printf_core
    printf0.o(i.__0vsnprintf$0) refers to printf0.o(i._snputc) for _snputc
    printf0.o(i.__0vsprintf$0) refers to printf0.o(i._printf_core) for _printf_core
    printf0.o(i.__0vsprintf$0) refers to printf0.o(i._sputc) for _sputc
    printf1.o(i.__0fprintf$1) refers to printf1.o(i._printf_core) for _printf_core
    printf1.o(i.__0fprintf$1) refers to bsp_uartcomm.o(.text) for fputc
    printf1.o(i.__0printf$1) refers to printf1.o(i._printf_core) for _printf_core
    printf1.o(i.__0printf$1) refers to bsp_uartcomm.o(.text) for fputc
    printf1.o(i.__0printf$1) refers to stdout.o(.data) for __stdout
    printf1.o(i.__0snprintf$1) refers to printf1.o(i._printf_core) for _printf_core
    printf1.o(i.__0snprintf$1) refers to printf1.o(i._snputc) for _snputc
    printf1.o(i.__0sprintf$1) refers to printf1.o(i._printf_core) for _printf_core
    printf1.o(i.__0sprintf$1) refers to printf1.o(i._sputc) for _sputc
    printf1.o(i.__0vfprintf$1) refers to printf1.o(i._printf_core) for _printf_core
    printf1.o(i.__0vfprintf$1) refers to bsp_uartcomm.o(.text) for fputc
    printf1.o(i.__0vprintf$1) refers to printf1.o(i._printf_core) for _printf_core
    printf1.o(i.__0vprintf$1) refers to bsp_uartcomm.o(.text) for fputc
    printf1.o(i.__0vprintf$1) refers to stdout.o(.data) for __stdout
    printf1.o(i.__0vsnprintf$1) refers to printf1.o(i._printf_core) for _printf_core
    printf1.o(i.__0vsnprintf$1) refers to printf1.o(i._snputc) for _snputc
    printf1.o(i.__0vsprintf$1) refers to printf1.o(i._printf_core) for _printf_core
    printf1.o(i.__0vsprintf$1) refers to printf1.o(i._sputc) for _sputc
    printf1.o(i._printf_core) refers to uidiv.o(.text) for __aeabi_uidivmod
    printf2.o(i.__0fprintf$2) refers to printf2.o(i._printf_core) for _printf_core
    printf2.o(i.__0fprintf$2) refers to bsp_uartcomm.o(.text) for fputc
    printf2.o(i.__0printf$2) refers to printf2.o(i._printf_core) for _printf_core
    printf2.o(i.__0printf$2) refers to bsp_uartcomm.o(.text) for fputc
    printf2.o(i.__0printf$2) refers to stdout.o(.data) for __stdout
    printf2.o(i.__0snprintf$2) refers to printf2.o(i._printf_core) for _printf_core
    printf2.o(i.__0snprintf$2) refers to printf2.o(i._snputc) for _snputc
    printf2.o(i.__0sprintf$2) refers to printf2.o(i._printf_core) for _printf_core
    printf2.o(i.__0sprintf$2) refers to printf2.o(i._sputc) for _sputc
    printf2.o(i.__0vfprintf$2) refers to printf2.o(i._printf_core) for _printf_core
    printf2.o(i.__0vfprintf$2) refers to bsp_uartcomm.o(.text) for fputc
    printf2.o(i.__0vprintf$2) refers to printf2.o(i._printf_core) for _printf_core
    printf2.o(i.__0vprintf$2) refers to bsp_uartcomm.o(.text) for fputc
    printf2.o(i.__0vprintf$2) refers to stdout.o(.data) for __stdout
    printf2.o(i.__0vsnprintf$2) refers to printf2.o(i._printf_core) for _printf_core
    printf2.o(i.__0vsnprintf$2) refers to printf2.o(i._snputc) for _snputc
    printf2.o(i.__0vsprintf$2) refers to printf2.o(i._printf_core) for _printf_core
    printf2.o(i.__0vsprintf$2) refers to printf2.o(i._sputc) for _sputc
    printf3.o(i.__0fprintf$3) refers to printf3.o(i._printf_core) for _printf_core
    printf3.o(i.__0fprintf$3) refers to bsp_uartcomm.o(.text) for fputc
    printf3.o(i.__0printf$3) refers to printf3.o(i._printf_core) for _printf_core
    printf3.o(i.__0printf$3) refers to bsp_uartcomm.o(.text) for fputc
    printf3.o(i.__0printf$3) refers to stdout.o(.data) for __stdout
    printf3.o(i.__0snprintf$3) refers to printf3.o(i._printf_core) for _printf_core
    printf3.o(i.__0snprintf$3) refers to printf3.o(i._snputc) for _snputc
    printf3.o(i.__0sprintf$3) refers to printf3.o(i._printf_core) for _printf_core
    printf3.o(i.__0sprintf$3) refers to printf3.o(i._sputc) for _sputc
    printf3.o(i.__0vfprintf$3) refers to printf3.o(i._printf_core) for _printf_core
    printf3.o(i.__0vfprintf$3) refers to bsp_uartcomm.o(.text) for fputc
    printf3.o(i.__0vprintf$3) refers to printf3.o(i._printf_core) for _printf_core
    printf3.o(i.__0vprintf$3) refers to bsp_uartcomm.o(.text) for fputc
    printf3.o(i.__0vprintf$3) refers to stdout.o(.data) for __stdout
    printf3.o(i.__0vsnprintf$3) refers to printf3.o(i._printf_core) for _printf_core
    printf3.o(i.__0vsnprintf$3) refers to printf3.o(i._snputc) for _snputc
    printf3.o(i.__0vsprintf$3) refers to printf3.o(i._printf_core) for _printf_core
    printf3.o(i.__0vsprintf$3) refers to printf3.o(i._sputc) for _sputc
    printf3.o(i._printf_core) refers to uidiv.o(.text) for __aeabi_uidivmod
    printf4.o(i.__0fprintf$4) refers to printf4.o(i._printf_core) for _printf_core
    printf4.o(i.__0fprintf$4) refers to bsp_uartcomm.o(.text) for fputc
    printf4.o(i.__0printf$4) refers to printf4.o(i._printf_core) for _printf_core
    printf4.o(i.__0printf$4) refers to bsp_uartcomm.o(.text) for fputc
    printf4.o(i.__0printf$4) refers to stdout.o(.data) for __stdout
    printf4.o(i.__0snprintf$4) refers to printf4.o(i._printf_core) for _printf_core
    printf4.o(i.__0snprintf$4) refers to printf4.o(i._snputc) for _snputc
    printf4.o(i.__0sprintf$4) refers to printf4.o(i._printf_core) for _printf_core
    printf4.o(i.__0sprintf$4) refers to printf4.o(i._sputc) for _sputc
    printf4.o(i.__0vfprintf$4) refers to printf4.o(i._printf_core) for _printf_core
    printf4.o(i.__0vfprintf$4) refers to bsp_uartcomm.o(.text) for fputc
    printf4.o(i.__0vprintf$4) refers to printf4.o(i._printf_core) for _printf_core
    printf4.o(i.__0vprintf$4) refers to bsp_uartcomm.o(.text) for fputc
    printf4.o(i.__0vprintf$4) refers to stdout.o(.data) for __stdout
    printf4.o(i.__0vsnprintf$4) refers to printf4.o(i._printf_core) for _printf_core
    printf4.o(i.__0vsnprintf$4) refers to printf4.o(i._snputc) for _snputc
    printf4.o(i.__0vsprintf$4) refers to printf4.o(i._printf_core) for _printf_core
    printf4.o(i.__0vsprintf$4) refers to printf4.o(i._sputc) for _sputc
    printf4.o(i._printf_core) refers to uldiv.o(.text) for __aeabi_uldivmod
    printf5.o(i.__0fprintf$5) refers to printf5.o(i._printf_core) for _printf_core
    printf5.o(i.__0fprintf$5) refers to bsp_uartcomm.o(.text) for fputc
    printf5.o(i.__0printf$5) refers to printf5.o(i._printf_core) for _printf_core
    printf5.o(i.__0printf$5) refers to bsp_uartcomm.o(.text) for fputc
    printf5.o(i.__0printf$5) refers to stdout.o(.data) for __stdout
    printf5.o(i.__0snprintf$5) refers to printf5.o(i._printf_core) for _printf_core
    printf5.o(i.__0snprintf$5) refers to printf5.o(i._snputc) for _snputc
    printf5.o(i.__0sprintf$5) refers to printf5.o(i._printf_core) for _printf_core
    printf5.o(i.__0sprintf$5) refers to printf5.o(i._sputc) for _sputc
    printf5.o(i.__0vfprintf$5) refers to printf5.o(i._printf_core) for _printf_core
    printf5.o(i.__0vfprintf$5) refers to bsp_uartcomm.o(.text) for fputc
    printf5.o(i.__0vprintf$5) refers to printf5.o(i._printf_core) for _printf_core
    printf5.o(i.__0vprintf$5) refers to bsp_uartcomm.o(.text) for fputc
    printf5.o(i.__0vprintf$5) refers to stdout.o(.data) for __stdout
    printf5.o(i.__0vsnprintf$5) refers to printf5.o(i._printf_core) for _printf_core
    printf5.o(i.__0vsnprintf$5) refers to printf5.o(i._snputc) for _snputc
    printf5.o(i.__0vsprintf$5) refers to printf5.o(i._printf_core) for _printf_core
    printf5.o(i.__0vsprintf$5) refers to printf5.o(i._sputc) for _sputc
    printf5.o(i._printf_core) refers to uldiv.o(.text) for __aeabi_uldivmod
    printf6.o(i.__0fprintf$6) refers to printf6.o(i._printf_core) for _printf_core
    printf6.o(i.__0fprintf$6) refers to bsp_uartcomm.o(.text) for fputc
    printf6.o(i.__0printf$6) refers to printf6.o(i._printf_core) for _printf_core
    printf6.o(i.__0printf$6) refers to bsp_uartcomm.o(.text) for fputc
    printf6.o(i.__0printf$6) refers to stdout.o(.data) for __stdout
    printf6.o(i.__0snprintf$6) refers to printf6.o(i._printf_core) for _printf_core
    printf6.o(i.__0snprintf$6) refers to printf6.o(i._snputc) for _snputc
    printf6.o(i.__0sprintf$6) refers to printf6.o(i._printf_core) for _printf_core
    printf6.o(i.__0sprintf$6) refers to printf6.o(i._sputc) for _sputc
    printf6.o(i.__0vfprintf$6) refers to printf6.o(i._printf_core) for _printf_core
    printf6.o(i.__0vfprintf$6) refers to bsp_uartcomm.o(.text) for fputc
    printf6.o(i.__0vprintf$6) refers to printf6.o(i._printf_core) for _printf_core
    printf6.o(i.__0vprintf$6) refers to bsp_uartcomm.o(.text) for fputc
    printf6.o(i.__0vprintf$6) refers to stdout.o(.data) for __stdout
    printf6.o(i.__0vsnprintf$6) refers to printf6.o(i._printf_core) for _printf_core
    printf6.o(i.__0vsnprintf$6) refers to printf6.o(i._snputc) for _snputc
    printf6.o(i.__0vsprintf$6) refers to printf6.o(i._printf_core) for _printf_core
    printf6.o(i.__0vsprintf$6) refers to printf6.o(i._sputc) for _sputc
    printf6.o(i._printf_core) refers to printf6.o(i._printf_pre_padding) for _printf_pre_padding
    printf6.o(i._printf_core) refers to uidiv.o(.text) for __aeabi_uidivmod
    printf6.o(i._printf_core) refers to printf6.o(i._printf_post_padding) for _printf_post_padding
    printf7.o(i.__0fprintf$7) refers to printf7.o(i._printf_core) for _printf_core
    printf7.o(i.__0fprintf$7) refers to bsp_uartcomm.o(.text) for fputc
    printf7.o(i.__0printf$7) refers to printf7.o(i._printf_core) for _printf_core
    printf7.o(i.__0printf$7) refers to bsp_uartcomm.o(.text) for fputc
    printf7.o(i.__0printf$7) refers to stdout.o(.data) for __stdout
    printf7.o(i.__0snprintf$7) refers to printf7.o(i._printf_core) for _printf_core
    printf7.o(i.__0snprintf$7) refers to printf7.o(i._snputc) for _snputc
    printf7.o(i.__0sprintf$7) refers to printf7.o(i._printf_core) for _printf_core
    printf7.o(i.__0sprintf$7) refers to printf7.o(i._sputc) for _sputc
    printf7.o(i.__0vfprintf$7) refers to printf7.o(i._printf_core) for _printf_core
    printf7.o(i.__0vfprintf$7) refers to bsp_uartcomm.o(.text) for fputc
    printf7.o(i.__0vprintf$7) refers to printf7.o(i._printf_core) for _printf_core
    printf7.o(i.__0vprintf$7) refers to bsp_uartcomm.o(.text) for fputc
    printf7.o(i.__0vprintf$7) refers to stdout.o(.data) for __stdout
    printf7.o(i.__0vsnprintf$7) refers to printf7.o(i._printf_core) for _printf_core
    printf7.o(i.__0vsnprintf$7) refers to printf7.o(i._snputc) for _snputc
    printf7.o(i.__0vsprintf$7) refers to printf7.o(i._printf_core) for _printf_core
    printf7.o(i.__0vsprintf$7) refers to printf7.o(i._sputc) for _sputc
    printf7.o(i._printf_core) refers to printf7.o(i._printf_pre_padding) for _printf_pre_padding
    printf7.o(i._printf_core) refers to uldiv.o(.text) for __aeabi_uldivmod
    printf7.o(i._printf_core) refers to printf7.o(i._printf_post_padding) for _printf_post_padding
    printf8.o(i.__0fprintf$8) refers to printf8.o(i._printf_core) for _printf_core
    printf8.o(i.__0fprintf$8) refers to bsp_uartcomm.o(.text) for fputc
    printf8.o(i.__0printf$8) refers to printf8.o(i._printf_core) for _printf_core
    printf8.o(i.__0printf$8) refers to bsp_uartcomm.o(.text) for fputc
    printf8.o(i.__0printf$8) refers to stdout.o(.data) for __stdout
    printf8.o(i.__0snprintf$8) refers to printf8.o(i._printf_core) for _printf_core
    printf8.o(i.__0snprintf$8) refers to printf8.o(i._snputc) for _snputc
    printf8.o(i.__0sprintf$8) refers to printf8.o(i._printf_core) for _printf_core
    printf8.o(i.__0sprintf$8) refers to printf8.o(i._sputc) for _sputc
    printf8.o(i.__0vfprintf$8) refers to printf8.o(i._printf_core) for _printf_core
    printf8.o(i.__0vfprintf$8) refers to bsp_uartcomm.o(.text) for fputc
    printf8.o(i.__0vprintf$8) refers to printf8.o(i._printf_core) for _printf_core
    printf8.o(i.__0vprintf$8) refers to bsp_uartcomm.o(.text) for fputc
    printf8.o(i.__0vprintf$8) refers to stdout.o(.data) for __stdout
    printf8.o(i.__0vsnprintf$8) refers to printf8.o(i._printf_core) for _printf_core
    printf8.o(i.__0vsnprintf$8) refers to printf8.o(i._snputc) for _snputc
    printf8.o(i.__0vsprintf$8) refers to printf8.o(i._printf_core) for _printf_core
    printf8.o(i.__0vsprintf$8) refers to printf8.o(i._sputc) for _sputc
    printf8.o(i._printf_core) refers to printf8.o(i._printf_pre_padding) for _printf_pre_padding
    printf8.o(i._printf_core) refers to uldiv.o(.text) for __aeabi_uldivmod
    printf8.o(i._printf_core) refers to printf8.o(i._printf_post_padding) for _printf_post_padding
    printfa.o(i.__0fprintf) refers (Special) to iusefp.o(.text) for __I$use$fp
    printfa.o(i.__0fprintf) refers to printfa.o(i._printf_core) for _printf_core
    printfa.o(i.__0fprintf) refers to bsp_uartcomm.o(.text) for fputc
    printfa.o(i.__0printf) refers (Special) to iusefp.o(.text) for __I$use$fp
    printfa.o(i.__0printf) refers to printfa.o(i._printf_core) for _printf_core
    printfa.o(i.__0printf) refers to bsp_uartcomm.o(.text) for fputc
    printfa.o(i.__0printf) refers to stdout.o(.data) for __stdout
    printfa.o(i.__0snprintf) refers (Special) to iusefp.o(.text) for __I$use$fp
    printfa.o(i.__0snprintf) refers to printfa.o(i._printf_core) for _printf_core
    printfa.o(i.__0snprintf) refers to printfa.o(i._snputc) for _snputc
    printfa.o(i.__0sprintf) refers (Special) to iusefp.o(.text) for __I$use$fp
    printfa.o(i.__0sprintf) refers to printfa.o(i._printf_core) for _printf_core
    printfa.o(i.__0sprintf) refers to printfa.o(i._sputc) for _sputc
    printfa.o(i.__0vfprintf) refers (Special) to iusefp.o(.text) for __I$use$fp
    printfa.o(i.__0vfprintf) refers to printfa.o(i._printf_core) for _printf_core
    printfa.o(i.__0vfprintf) refers to bsp_uartcomm.o(.text) for fputc
    printfa.o(i.__0vprintf) refers (Special) to iusefp.o(.text) for __I$use$fp
    printfa.o(i.__0vprintf) refers to printfa.o(i._printf_core) for _printf_core
    printfa.o(i.__0vprintf) refers to bsp_uartcomm.o(.text) for fputc
    printfa.o(i.__0vprintf) refers to stdout.o(.data) for __stdout
    printfa.o(i.__0vsnprintf) refers (Special) to iusefp.o(.text) for __I$use$fp
    printfa.o(i.__0vsnprintf) refers to printfa.o(i._printf_core) for _printf_core
    printfa.o(i.__0vsnprintf) refers to printfa.o(i._snputc) for _snputc
    printfa.o(i.__0vsprintf) refers (Special) to iusefp.o(.text) for __I$use$fp
    printfa.o(i.__0vsprintf) refers to printfa.o(i._printf_core) for _printf_core
    printfa.o(i.__0vsprintf) refers to printfa.o(i._sputc) for _sputc
    printfa.o(i._fp_digits) refers (Special) to iusefp.o(.text) for __I$use$fp
    printfa.o(i._fp_digits) refers to dmul.o(.text) for __aeabi_dmul
    printfa.o(i._fp_digits) refers to ddiv.o(.text) for __aeabi_ddiv
    printfa.o(i._fp_digits) refers to cdrcmple.o(.text) for __aeabi_cdrcmple
    printfa.o(i._fp_digits) refers to dadd.o(.text) for __aeabi_dadd
    printfa.o(i._fp_digits) refers to dfixul.o(.text) for __aeabi_d2ulz
    printfa.o(i._fp_digits) refers to uldiv.o(.text) for __aeabi_uldivmod
    printfa.o(i._printf_core) refers (Special) to iusefp.o(.text) for __I$use$fp
    printfa.o(i._printf_core) refers to printfa.o(i._printf_pre_padding) for _printf_pre_padding
    printfa.o(i._printf_core) refers to uldiv.o(.text) for __aeabi_uldivmod
    printfa.o(i._printf_core) refers to printfa.o(i._printf_post_padding) for _printf_post_padding
    printfa.o(i._printf_core) refers to printfa.o(i._fp_digits) for _fp_digits
    printfa.o(i._printf_core) refers to uidiv.o(.text) for __aeabi_uidivmod
    printfa.o(i._printf_post_padding) refers (Special) to iusefp.o(.text) for __I$use$fp
    printfa.o(i._printf_pre_padding) refers (Special) to iusefp.o(.text) for __I$use$fp
    printfa.o(i._snputc) refers (Special) to iusefp.o(.text) for __I$use$fp
    printfa.o(i._sputc) refers (Special) to iusefp.o(.text) for __I$use$fp
    strtol.o(.text) refers to ctype_o.o(.text) for __rt_ctype_table
    strtol.o(.text) refers to _strtoul.o(.text) for _strtoul
    strtol.o(.text) refers to errno.o(i.__aeabi_errno_addr) for __aeabi_errno_addr
    atoi.o(.text) refers to errno.o(i.__aeabi_errno_addr) for __aeabi_errno_addr
    atoi.o(.text) refers to strtol.o(.text) for strtol
    fmul.o(.text) refers (Special) to iusefp.o(.text) for __I$use$fp
    fdiv.o(.text) refers (Special) to iusefp.o(.text) for __I$use$fp
    fdiv.o(.text) refers to fepilogue.o(.text) for _float_round
    dadd.o(.text) refers (Special) to iusefp.o(.text) for __I$use$fp
    dadd.o(.text) refers to llshl.o(.text) for __aeabi_llsl
    dadd.o(.text) refers to llsshr.o(.text) for __aeabi_lasr
    dadd.o(.text) refers to depilogue.o(.text) for _double_epilogue
    ddiv.o(.text) refers (Special) to iusefp.o(.text) for __I$use$fp
    ddiv.o(.text) refers to depilogue.o(.text) for _double_round
    fflti.o(.text) refers (Special) to iusefp.o(.text) for __I$use$fp
    fflti.o(.text) refers to fepilogue.o(.text) for _float_epilogue
    ffltui.o(.text) refers (Special) to iusefp.o(.text) for __I$use$fp
    ffltui.o(.text) refers to fepilogue.o(.text) for _float_epilogue
    dflti.o(.text) refers (Special) to iusefp.o(.text) for __I$use$fp
    dflti.o(.text) refers to depilogue.o(.text) for _double_epilogue
    ffixi.o(.text) refers (Special) to iusefp.o(.text) for __I$use$fp
    dfixi.o(.text) refers (Special) to iusefp.o(.text) for __I$use$fp
    dfixi.o(.text) refers to llushr.o(.text) for __aeabi_llsr
    f2d.o(.text) refers (Special) to iusefp.o(.text) for __I$use$fp
    d2f.o(.text) refers (Special) to iusefp.o(.text) for __I$use$fp
    d2f.o(.text) refers to fepilogue.o(.text) for _float_round
    entry2.o(.ARM.Collect$$$$00000001) refers to entry2.o(.ARM.Collect$$$$00002712) for __lit__00000000
    entry2.o(.ARM.Collect$$$$00002712) refers to startup_stm32f103xe.o(STACK) for __initial_sp
    entry2.o(__vectab_stack_and_reset_area) refers to startup_stm32f103xe.o(STACK) for __initial_sp
    entry2.o(__vectab_stack_and_reset_area) refers to entry.o(.ARM.Collect$$$$00000000) for __main
    entry5.o(.ARM.Collect$$$$00000004) refers to init.o(.text) for __scatterload
    entry9a.o(.ARM.Collect$$$$0000000B) refers to main.o(.text) for main
    entry9b.o(.ARM.Collect$$$$0000000C) refers to main.o(.text) for main
    uldiv.o(.text) refers to llushr.o(.text) for __aeabi_llsr
    uldiv.o(.text) refers to llshl.o(.text) for __aeabi_llsl
    ctype_o.o(.text) refers to ctype_o.o(.constdata) for .constdata
    ctype_o.o(.constdata) refers to ctype_o.o(.constdata) for __ctype_table
    isalnum_o.o(.text) refers to ctype_o.o(.text) for __rt_ctype_table
    isalpha_o.o(.text) refers to ctype_o.o(.text) for __rt_ctype_table
    isblank_o.o(.text) refers to ctype_o.o(.constdata) for __ctype_table
    iscntrl_o.o(.text) refers to ctype_o.o(.text) for __rt_ctype_table
    isdigit_o.o(.text) refers to ctype_o.o(.text) for __rt_ctype_table
    isgraph_o.o(.text) refers to ctype_o.o(.text) for __rt_ctype_table
    islower_o.o(.text) refers to ctype_o.o(.text) for __rt_ctype_table
    isprint_o.o(.text) refers to ctype_o.o(.text) for __rt_ctype_table
    ispunct_o.o(.text) refers to ctype_o.o(.text) for __rt_ctype_table
    isspace_o.o(.text) refers to ctype_o.o(.text) for __rt_ctype_table
    isupper_o.o(.text) refers to ctype_o.o(.text) for __rt_ctype_table
    isxdigit_o.o(.text) refers to ctype_o.o(.text) for __rt_ctype_table
    errno.o(i.__aeabi_errno_addr) refers to errno.o(.data) for .data
    errno.o(i.__read_errno) refers to errno.o(.data) for .data
    errno.o(i.__set_errno) refers to errno.o(.data) for .data
    _strtoul.o(.text) refers to _chval.o(.text) for _chval
    _strtoul.o(.text) refers to errno.o(i.__aeabi_errno_addr) for __aeabi_errno_addr
    depilogue.o(.text) refers to llshl.o(.text) for __aeabi_llsl
    depilogue.o(.text) refers to llushr.o(.text) for __aeabi_llsr
    dmul.o(.text) refers to depilogue.o(.text) for _double_epilogue
    dfixul.o(.text) refers to llushr.o(.text) for __aeabi_llsr
    dfixul.o(.text) refers to llshl.o(.text) for __aeabi_llsl
    init.o(.text) refers to entry5.o(.ARM.Collect$$$$00000004) for __main_after_scatterload
    bsp_uartcomm.o(i.UART_sendByte) refers to bsp_uartcomm.o(.text) for UART_sendData


==============================================================================

Removing Unused input sections from the image.

    Removing api_utc.o(.rev16_text), (4 bytes).
    Removing api_utc.o(.revsh_text), (4 bytes).
    Removing api_utc.o(.rrx_text), (6 bytes).
    Removing fifo.o(.rev16_text), (4 bytes).
    Removing fifo.o(.revsh_text), (4 bytes).
    Removing fifo.o(.rrx_text), (6 bytes).
    Removing print_monitor.o(.rev16_text), (4 bytes).
    Removing print_monitor.o(.revsh_text), (4 bytes).
    Removing print_monitor.o(.rrx_text), (6 bytes).
    Removing i2cforward.o(.rev16_text), (4 bytes).
    Removing i2cforward.o(.revsh_text), (4 bytes).
    Removing i2cforward.o(.rrx_text), (6 bytes).
    Removing i2cforward.o(.text), (10 bytes).
    Removing eeprom.o(.rev16_text), (4 bytes).
    Removing eeprom.o(.revsh_text), (4 bytes).
    Removing eeprom.o(.rrx_text), (6 bytes).
    Removing temperatureinside.o(.rev16_text), (4 bytes).
    Removing temperatureinside.o(.revsh_text), (4 bytes).
    Removing temperatureinside.o(.rrx_text), (6 bytes).
    Removing bsp_uartcomm.o(.rev16_text), (4 bytes).
    Removing bsp_uartcomm.o(.revsh_text), (4 bytes).
    Removing bsp_uartcomm.o(.rrx_text), (6 bytes).
    Removing bsp_gpio.o(.rev16_text), (4 bytes).
    Removing bsp_gpio.o(.revsh_text), (4 bytes).
    Removing bsp_gpio.o(.rrx_text), (6 bytes).
    Removing bsp_usart1.o(.rev16_text), (4 bytes).
    Removing bsp_usart1.o(.revsh_text), (4 bytes).
    Removing bsp_usart1.o(.rrx_text), (6 bytes).
    Removing bsp_i2c.o(.rev16_text), (4 bytes).
    Removing bsp_i2c.o(.revsh_text), (4 bytes).
    Removing bsp_i2c.o(.rrx_text), (6 bytes).
    Removing pwm.o(.rev16_text), (4 bytes).
    Removing pwm.o(.revsh_text), (4 bytes).
    Removing pwm.o(.rrx_text), (6 bytes).
    Removing bsp_i2cs0.o(.rev16_text), (4 bytes).
    Removing bsp_i2cs0.o(.revsh_text), (4 bytes).
    Removing bsp_i2cs0.o(.rrx_text), (6 bytes).
    Removing bsp_i2ccomm.o(.rev16_text), (4 bytes).
    Removing bsp_i2ccomm.o(.revsh_text), (4 bytes).
    Removing bsp_i2ccomm.o(.rrx_text), (6 bytes).
    Removing bsp_i2cs1.o(.rev16_text), (4 bytes).
    Removing bsp_i2cs1.o(.revsh_text), (4 bytes).
    Removing bsp_i2cs1.o(.rrx_text), (6 bytes).
    Removing dev_fsm.o(.rev16_text), (4 bytes).
    Removing dev_fsm.o(.revsh_text), (4 bytes).
    Removing dev_fsm.o(.rrx_text), (6 bytes).
    Removing dev_fsm.o(.text), (276 bytes).
    Removing bsp_key.o(.rev16_text), (4 bytes).
    Removing bsp_key.o(.revsh_text), (4 bytes).
    Removing bsp_key.o(.rrx_text), (6 bytes).
    Removing shell.o(.rev16_text), (4 bytes).
    Removing shell.o(.revsh_text), (4 bytes).
    Removing shell.o(.rrx_text), (6 bytes).
    Removing shell_ext.o(.rev16_text), (4 bytes).
    Removing shell_ext.o(.revsh_text), (4 bytes).
    Removing shell_ext.o(.rrx_text), (6 bytes).
    Removing shell_port.o(.rev16_text), (4 bytes).
    Removing shell_port.o(.revsh_text), (4 bytes).
    Removing shell_port.o(.rrx_text), (6 bytes).
    Removing shell_cmd_list.o(.rev16_text), (4 bytes).
    Removing shell_cmd_list.o(.revsh_text), (4 bytes).
    Removing shell_cmd_list.o(.rrx_text), (6 bytes).
    Removing gpio_shell.o(.rev16_text), (4 bytes).
    Removing gpio_shell.o(.revsh_text), (4 bytes).
    Removing gpio_shell.o(.rrx_text), (6 bytes).
    Removing main.o(.rev16_text), (4 bytes).
    Removing main.o(.revsh_text), (4 bytes).
    Removing main.o(.rrx_text), (6 bytes).
    Removing main.o(.emb_text), (16 bytes).
    Removing freertos.o(.rev16_text), (4 bytes).
    Removing freertos.o(.revsh_text), (4 bytes).
    Removing freertos.o(.rrx_text), (6 bytes).
    Removing stm32f1xx_hal_msp.o(.rev16_text), (4 bytes).
    Removing stm32f1xx_hal_msp.o(.revsh_text), (4 bytes).
    Removing stm32f1xx_hal_msp.o(.rrx_text), (6 bytes).
    Removing stm32f1xx_it.o(.rev16_text), (4 bytes).
    Removing stm32f1xx_it.o(.revsh_text), (4 bytes).
    Removing stm32f1xx_it.o(.rrx_text), (6 bytes).
    Removing cm_backtrace.o(.rev16_text), (4 bytes).
    Removing cm_backtrace.o(.revsh_text), (4 bytes).
    Removing cm_backtrace.o(.rrx_text), (6 bytes).
    Removing startup_stm32f103xe.o(HEAP), (512 bytes).
    Removing system_stm32f1xx.o(.rev16_text), (4 bytes).
    Removing system_stm32f1xx.o(.revsh_text), (4 bytes).
    Removing system_stm32f1xx.o(.rrx_text), (6 bytes).
    Removing event_groups.o(.text), (1224 bytes).
    Removing stream_buffer.o(.text), (2532 bytes).
    Removing stm32f1xx_hal_gpio_ex.o(.rev16_text), (4 bytes).
    Removing stm32f1xx_hal_gpio_ex.o(.revsh_text), (4 bytes).
    Removing stm32f1xx_hal_gpio_ex.o(.rrx_text), (6 bytes).
    Removing stm32f1xx_hal_gpio_ex.o(.text), (52 bytes).
    Removing stm32f1xx_hal_gpio.o(.rev16_text), (4 bytes).
    Removing stm32f1xx_hal_gpio.o(.revsh_text), (4 bytes).
    Removing stm32f1xx_hal_gpio.o(.rrx_text), (6 bytes).
    Removing stm32f1xx_hal_dma.o(.rev16_text), (4 bytes).
    Removing stm32f1xx_hal_dma.o(.revsh_text), (4 bytes).
    Removing stm32f1xx_hal_dma.o(.rrx_text), (6 bytes).
    Removing stm32f1xx_hal_crc.o(.rev16_text), (4 bytes).
    Removing stm32f1xx_hal_crc.o(.revsh_text), (4 bytes).
    Removing stm32f1xx_hal_crc.o(.rrx_text), (6 bytes).
    Removing stm32f1xx_hal_pwr.o(.rev16_text), (4 bytes).
    Removing stm32f1xx_hal_pwr.o(.revsh_text), (4 bytes).
    Removing stm32f1xx_hal_pwr.o(.rrx_text), (6 bytes).
    Removing stm32f1xx_hal_pwr.o(.text), (520 bytes).
    Removing stm32f1xx_hal_flash.o(.rev16_text), (4 bytes).
    Removing stm32f1xx_hal_flash.o(.revsh_text), (4 bytes).
    Removing stm32f1xx_hal_flash.o(.rrx_text), (6 bytes).
    Removing stm32f1xx_hal_flash.o(.text), (1052 bytes).
    Removing stm32f1xx_hal_flash.o(.bss), (32 bytes).
    Removing stm32f1xx_hal_flash_ex.o(.rev16_text), (4 bytes).
    Removing stm32f1xx_hal_flash_ex.o(.revsh_text), (4 bytes).
    Removing stm32f1xx_hal_flash_ex.o(.rrx_text), (6 bytes).
    Removing stm32f1xx_hal_flash_ex.o(.text), (1424 bytes).
    Removing stm32f1xx_hal_tim.o(.rev16_text), (4 bytes).
    Removing stm32f1xx_hal_tim.o(.revsh_text), (4 bytes).
    Removing stm32f1xx_hal_tim.o(.rrx_text), (6 bytes).
    Removing stm32f1xx_hal_tim_ex.o(.rev16_text), (4 bytes).
    Removing stm32f1xx_hal_tim_ex.o(.revsh_text), (4 bytes).
    Removing stm32f1xx_hal_tim_ex.o(.rrx_text), (6 bytes).
    Removing stm32f1xx_hal_uart.o(.rev16_text), (4 bytes).
    Removing stm32f1xx_hal_uart.o(.revsh_text), (4 bytes).
    Removing stm32f1xx_hal_uart.o(.rrx_text), (6 bytes).
    Removing stm32f1xx_hal_exti.o(.rev16_text), (4 bytes).
    Removing stm32f1xx_hal_exti.o(.revsh_text), (4 bytes).
    Removing stm32f1xx_hal_exti.o(.rrx_text), (6 bytes).
    Removing stm32f1xx_hal_exti.o(.text), (660 bytes).
    Removing stm32f1xx_hal.o(.rev16_text), (4 bytes).
    Removing stm32f1xx_hal.o(.revsh_text), (4 bytes).
    Removing stm32f1xx_hal.o(.rrx_text), (6 bytes).
    Removing stm32f1xx_hal_cortex.o(.rev16_text), (4 bytes).
    Removing stm32f1xx_hal_cortex.o(.revsh_text), (4 bytes).
    Removing stm32f1xx_hal_cortex.o(.rrx_text), (6 bytes).
    Removing stm32f1xx_hal_rtc.o(.rev16_text), (4 bytes).
    Removing stm32f1xx_hal_rtc.o(.revsh_text), (4 bytes).
    Removing stm32f1xx_hal_rtc.o(.rrx_text), (6 bytes).
    Removing stm32f1xx_hal_rtc.o(.text), (3066 bytes).
    Removing stm32f1xx_hal_rcc.o(.rev16_text), (4 bytes).
    Removing stm32f1xx_hal_rcc.o(.revsh_text), (4 bytes).
    Removing stm32f1xx_hal_rcc.o(.rrx_text), (6 bytes).
    Removing stm32f1xx_hal_rcc_ex.o(.rev16_text), (4 bytes).
    Removing stm32f1xx_hal_rcc_ex.o(.revsh_text), (4 bytes).
    Removing stm32f1xx_hal_rcc_ex.o(.rrx_text), (6 bytes).
    Removing stm32f1xx_hal_i2c.o(.rev16_text), (4 bytes).
    Removing stm32f1xx_hal_i2c.o(.revsh_text), (4 bytes).
    Removing stm32f1xx_hal_i2c.o(.rrx_text), (6 bytes).
    Removing stm32f1xx_hal_rtc_ex.o(.rev16_text), (4 bytes).
    Removing stm32f1xx_hal_rtc_ex.o(.revsh_text), (4 bytes).
    Removing stm32f1xx_hal_rtc_ex.o(.rrx_text), (6 bytes).
    Removing stm32f1xx_hal_adc.o(.rev16_text), (4 bytes).
    Removing stm32f1xx_hal_adc.o(.revsh_text), (4 bytes).
    Removing stm32f1xx_hal_adc.o(.rrx_text), (6 bytes).
    Removing stm32f1xx_hal_adc_ex.o(.rev16_text), (4 bytes).
    Removing stm32f1xx_hal_adc_ex.o(.revsh_text), (4 bytes).
    Removing stm32f1xx_hal_adc_ex.o(.rrx_text), (6 bytes).

154 unused section(s) (total 12034 bytes) removed from the image.

==============================================================================

Image Symbol Table

    Local Symbols

    Symbol Name                              Value     Ov Type        Size  Object(Section)

    ../Core/Src/freertos.c                   0x00000000   Number         0  freertos.o ABSOLUTE
    ../Core/Src/main.c                       0x00000000   Number         0  main.o ABSOLUTE
    ../Middlewares/Third_Party/FreeRTOS/Source/croutine.c 0x00000000   Number         0  croutine.o ABSOLUTE
    ../Middlewares/Third_Party/FreeRTOS/Source/event_groups.c 0x00000000   Number         0  event_groups.o ABSOLUTE
    ../Middlewares/Third_Party/FreeRTOS/Source/list.c 0x00000000   Number         0  list.o ABSOLUTE
    ../Middlewares/Third_Party/FreeRTOS/Source/portable/MemMang/heap_4.c 0x00000000   Number         0  heap_4.o ABSOLUTE
    ../Middlewares/Third_Party/FreeRTOS/Source/queue.c 0x00000000   Number         0  queue.o ABSOLUTE
    ../Middlewares/Third_Party/FreeRTOS/Source/stream_buffer.c 0x00000000   Number         0  stream_buffer.o ABSOLUTE
    ../Middlewares/Third_Party/FreeRTOS/Source/tasks.c 0x00000000   Number         0  tasks.o ABSOLUTE
    ../Middlewares/Third_Party/FreeRTOS/Source/timers.c 0x00000000   Number         0  timers.o ABSOLUTE
    ../clib/../cmprslib/zerorunl2.c          0x00000000   Number         0  __dczerorl2.o ABSOLUTE
    ../clib/microlib/ctype/ctype.c           0x00000000   Number         0  isdigit_o.o ABSOLUTE
    ../clib/microlib/ctype/ctype.c           0x00000000   Number         0  iscntrl_o.o ABSOLUTE
    ../clib/microlib/ctype/ctype.c           0x00000000   Number         0  isspace_o.o ABSOLUTE
    ../clib/microlib/ctype/ctype.c           0x00000000   Number         0  isxdigit_o.o ABSOLUTE
    ../clib/microlib/ctype/ctype.c           0x00000000   Number         0  ctype_o.o ABSOLUTE
    ../clib/microlib/ctype/ctype.c           0x00000000   Number         0  ispunct_o.o ABSOLUTE
    ../clib/microlib/ctype/ctype.c           0x00000000   Number         0  isalnum_o.o ABSOLUTE
    ../clib/microlib/ctype/ctype.c           0x00000000   Number         0  isgraph_o.o ABSOLUTE
    ../clib/microlib/ctype/ctype.c           0x00000000   Number         0  isupper_o.o ABSOLUTE
    ../clib/microlib/ctype/ctype.c           0x00000000   Number         0  islower_o.o ABSOLUTE
    ../clib/microlib/ctype/ctype.c           0x00000000   Number         0  isprint_o.o ABSOLUTE
    ../clib/microlib/ctype/ctype.c           0x00000000   Number         0  isalpha_o.o ABSOLUTE
    ../clib/microlib/ctype/ctype.c           0x00000000   Number         0  isblank_o.o ABSOLUTE
    ../clib/microlib/division.c              0x00000000   Number         0  uldiv.o ABSOLUTE
    ../clib/microlib/division.c              0x00000000   Number         0  uidiv.o ABSOLUTE
    ../clib/microlib/errno.c                 0x00000000   Number         0  errno.o ABSOLUTE
    ../clib/microlib/init/entry.s            0x00000000   Number         0  entry10a.o ABSOLUTE
    ../clib/microlib/init/entry.s            0x00000000   Number         0  entry.o ABSOLUTE
    ../clib/microlib/init/entry.s            0x00000000   Number         0  entry7b.o ABSOLUTE
    ../clib/microlib/init/entry.s            0x00000000   Number         0  entry12b.o ABSOLUTE
    ../clib/microlib/init/entry.s            0x00000000   Number         0  entry12a.o ABSOLUTE
    ../clib/microlib/init/entry.s            0x00000000   Number         0  entry11b.o ABSOLUTE
    ../clib/microlib/init/entry.s            0x00000000   Number         0  entry11a.o ABSOLUTE
    ../clib/microlib/init/entry.s            0x00000000   Number         0  entry7a.o ABSOLUTE
    ../clib/microlib/init/entry.s            0x00000000   Number         0  entry10b.o ABSOLUTE
    ../clib/microlib/init/entry.s            0x00000000   Number         0  entry9b.o ABSOLUTE
    ../clib/microlib/init/entry.s            0x00000000   Number         0  entry9a.o ABSOLUTE
    ../clib/microlib/init/entry.s            0x00000000   Number         0  entry8b.o ABSOLUTE
    ../clib/microlib/init/entry.s            0x00000000   Number         0  entry8a.o ABSOLUTE
    ../clib/microlib/init/entry.s            0x00000000   Number         0  entry5.o ABSOLUTE
    ../clib/microlib/init/entry.s            0x00000000   Number         0  entry2.o ABSOLUTE
    ../clib/microlib/longlong.c              0x00000000   Number         0  llsshr.o ABSOLUTE
    ../clib/microlib/longlong.c              0x00000000   Number         0  llshl.o ABSOLUTE
    ../clib/microlib/longlong.c              0x00000000   Number         0  llushr.o ABSOLUTE
    ../clib/microlib/printf/printf.c         0x00000000   Number         0  printf3.o ABSOLUTE
    ../clib/microlib/printf/printf.c         0x00000000   Number         0  printf5.o ABSOLUTE
    ../clib/microlib/printf/printf.c         0x00000000   Number         0  printf1.o ABSOLUTE
    ../clib/microlib/printf/printf.c         0x00000000   Number         0  printf4.o ABSOLUTE
    ../clib/microlib/printf/printf.c         0x00000000   Number         0  printf6.o ABSOLUTE
    ../clib/microlib/printf/printf.c         0x00000000   Number         0  printf0.o ABSOLUTE
    ../clib/microlib/printf/printf.c         0x00000000   Number         0  printf7.o ABSOLUTE
    ../clib/microlib/printf/printf.c         0x00000000   Number         0  printf8.o ABSOLUTE
    ../clib/microlib/printf/printf.c         0x00000000   Number         0  printfb.o ABSOLUTE
    ../clib/microlib/printf/printf.c         0x00000000   Number         0  printfa.o ABSOLUTE
    ../clib/microlib/printf/printf.c         0x00000000   Number         0  printf2.o ABSOLUTE
    ../clib/microlib/printf/stubs.s          0x00000000   Number         0  stubs.o ABSOLUTE
    ../clib/microlib/stdio/streams.c         0x00000000   Number         0  stdout.o ABSOLUTE
    ../clib/microlib/string/memcpy.c         0x00000000   Number         0  memcpyb.o ABSOLUTE
    ../clib/microlib/string/memcpy.c         0x00000000   Number         0  memcpya.o ABSOLUTE
    ../clib/microlib/string/memset.c         0x00000000   Number         0  memseta.o ABSOLUTE
    ../clib/microlib/string/memset.c         0x00000000   Number         0  memset.o ABSOLUTE
    ../clib/microlib/string/strcmp.c         0x00000000   Number         0  strcmp.o ABSOLUTE
    ../clib/microlib/string/strlen.c         0x00000000   Number         0  strlen.o ABSOLUTE
    ../clib/microlib/string/strncmp.c        0x00000000   Number         0  strncmp.o ABSOLUTE
    ../clib/microlib/string/strncpy.c        0x00000000   Number         0  strncpy.o ABSOLUTE
    ../clib/microlib/string/strtok.c         0x00000000   Number         0  strtok_r.o ABSOLUTE
    ../clib/microlib/string/strtok.c         0x00000000   Number         0  strtok.o ABSOLUTE
    ../clib/microlib/stubs.s                 0x00000000   Number         0  iusefp.o ABSOLUTE
    ../clib/scanf.c                          0x00000000   Number         0  strtol.o ABSOLUTE
    ../clib/scanf.c                          0x00000000   Number         0  atoi.o ABSOLUTE
    ../clib/scanf.c                          0x00000000   Number         0  _chval.o ABSOLUTE
    ../clib/scanf.c                          0x00000000   Number         0  _strtoul.o ABSOLUTE
    ../fplib/microlib/d2f.c                  0x00000000   Number         0  d2f.o ABSOLUTE
    ../fplib/microlib/f2d.c                  0x00000000   Number         0  f2d.o ABSOLUTE
    ../fplib/microlib/fpadd.c                0x00000000   Number         0  dadd.o ABSOLUTE
    ../fplib/microlib/fpdiv.c                0x00000000   Number         0  fdiv.o ABSOLUTE
    ../fplib/microlib/fpdiv.c                0x00000000   Number         0  ddiv.o ABSOLUTE
    ../fplib/microlib/fpepilogue.c           0x00000000   Number         0  depilogue.o ABSOLUTE
    ../fplib/microlib/fpepilogue.c           0x00000000   Number         0  fepilogue.o ABSOLUTE
    ../fplib/microlib/fpfix.c                0x00000000   Number         0  dfixul.o ABSOLUTE
    ../fplib/microlib/fpfix.c                0x00000000   Number         0  dfixi.o ABSOLUTE
    ../fplib/microlib/fpfix.c                0x00000000   Number         0  ffixi.o ABSOLUTE
    ../fplib/microlib/fpflt.c                0x00000000   Number         0  dflti.o ABSOLUTE
    ../fplib/microlib/fpflt.c                0x00000000   Number         0  ffltui.o ABSOLUTE
    ../fplib/microlib/fpflt.c                0x00000000   Number         0  fflti.o ABSOLUTE
    ../fplib/microlib/fpmul.c                0x00000000   Number         0  fmul.o ABSOLUTE
    ../fplib/microlib/fpmul.c                0x00000000   Number         0  dmul.o ABSOLUTE
    ..\Core\Src\freertos.c                   0x00000000   Number         0  freertos.o ABSOLUTE
    ..\Core\Src\main.c                       0x00000000   Number         0  main.o ABSOLUTE
    ..\Core\Src\stm32f1xx_hal_msp.c          0x00000000   Number         0  stm32f1xx_hal_msp.o ABSOLUTE
    ..\Core\Src\stm32f1xx_it.c               0x00000000   Number         0  stm32f1xx_it.o ABSOLUTE
    ..\Core\Src\system_stm32f1xx.c           0x00000000   Number         0  system_stm32f1xx.o ABSOLUTE
    ..\Core\api\FIFO.c                       0x00000000   Number         0  fifo.o ABSOLUTE
    ..\Core\api\I2CForward.c                 0x00000000   Number         0  i2cforward.o ABSOLUTE
    ..\Core\api\TemperatureInside.c          0x00000000   Number         0  temperatureinside.o ABSOLUTE
    ..\Core\api\api_utc.c                    0x00000000   Number         0  api_utc.o ABSOLUTE
    ..\Core\api\cm_backtrace\cm_backtrace.c  0x00000000   Number         0  cm_backtrace.o ABSOLUTE
    ..\Core\api\cm_backtrace\cmb_fault.S     0x00000000   Number         0  cmb_fault.o ABSOLUTE
    ..\Core\api\eeprom.c                     0x00000000   Number         0  eeprom.o ABSOLUTE
    ..\Core\api\gpio_shell.c                 0x00000000   Number         0  gpio_shell.o ABSOLUTE
    ..\Core\api\print_monitor.c              0x00000000   Number         0  print_monitor.o ABSOLUTE
    ..\Core\api\shell\shell.c                0x00000000   Number         0  shell.o ABSOLUTE
    ..\Core\api\shell\shell_cmd_list.c       0x00000000   Number         0  shell_cmd_list.o ABSOLUTE
    ..\Core\api\shell\shell_ext.c            0x00000000   Number         0  shell_ext.o ABSOLUTE
    ..\Core\api\shell\shell_port.c           0x00000000   Number         0  shell_port.o ABSOLUTE
    ..\Core\bsp\bsp_gpio.c                   0x00000000   Number         0  bsp_gpio.o ABSOLUTE
    ..\Core\bsp\bsp_i2c.c                    0x00000000   Number         0  bsp_i2c.o ABSOLUTE
    ..\Core\bsp\bsp_i2ccomm.c                0x00000000   Number         0  bsp_i2ccomm.o ABSOLUTE
    ..\Core\bsp\bsp_i2cs0.c                  0x00000000   Number         0  bsp_i2cs0.o ABSOLUTE
    ..\Core\bsp\bsp_i2cs1.c                  0x00000000   Number         0  bsp_i2cs1.o ABSOLUTE
    ..\Core\bsp\bsp_key.c                    0x00000000   Number         0  bsp_key.o ABSOLUTE
    ..\Core\bsp\bsp_uartcomm.c               0x00000000   Number         0  bsp_uartcomm.o ABSOLUTE
    ..\Core\bsp\bsp_usart1.c                 0x00000000   Number         0  bsp_usart1.o ABSOLUTE
    ..\Core\bsp\dev_fsm.c                    0x00000000   Number         0  dev_fsm.o ABSOLUTE
    ..\Core\bsp\initcall.c                   0x00000000   Number         0  initcall.o ABSOLUTE
    ..\Core\bsp\pwm.c                        0x00000000   Number         0  pwm.o ABSOLUTE
    ..\Drivers\STM32F1xx_HAL_Driver\Src\stm32f1xx_hal.c 0x00000000   Number         0  stm32f1xx_hal.o ABSOLUTE
    ..\Drivers\STM32F1xx_HAL_Driver\Src\stm32f1xx_hal_adc.c 0x00000000   Number         0  stm32f1xx_hal_adc.o ABSOLUTE
    ..\Drivers\STM32F1xx_HAL_Driver\Src\stm32f1xx_hal_adc_ex.c 0x00000000   Number         0  stm32f1xx_hal_adc_ex.o ABSOLUTE
    ..\Drivers\STM32F1xx_HAL_Driver\Src\stm32f1xx_hal_cortex.c 0x00000000   Number         0  stm32f1xx_hal_cortex.o ABSOLUTE
    ..\Drivers\STM32F1xx_HAL_Driver\Src\stm32f1xx_hal_crc.c 0x00000000   Number         0  stm32f1xx_hal_crc.o ABSOLUTE
    ..\Drivers\STM32F1xx_HAL_Driver\Src\stm32f1xx_hal_dma.c 0x00000000   Number         0  stm32f1xx_hal_dma.o ABSOLUTE
    ..\Drivers\STM32F1xx_HAL_Driver\Src\stm32f1xx_hal_exti.c 0x00000000   Number         0  stm32f1xx_hal_exti.o ABSOLUTE
    ..\Drivers\STM32F1xx_HAL_Driver\Src\stm32f1xx_hal_flash.c 0x00000000   Number         0  stm32f1xx_hal_flash.o ABSOLUTE
    ..\Drivers\STM32F1xx_HAL_Driver\Src\stm32f1xx_hal_flash_ex.c 0x00000000   Number         0  stm32f1xx_hal_flash_ex.o ABSOLUTE
    ..\Drivers\STM32F1xx_HAL_Driver\Src\stm32f1xx_hal_gpio.c 0x00000000   Number         0  stm32f1xx_hal_gpio.o ABSOLUTE
    ..\Drivers\STM32F1xx_HAL_Driver\Src\stm32f1xx_hal_gpio_ex.c 0x00000000   Number         0  stm32f1xx_hal_gpio_ex.o ABSOLUTE
    ..\Drivers\STM32F1xx_HAL_Driver\Src\stm32f1xx_hal_i2c.c 0x00000000   Number         0  stm32f1xx_hal_i2c.o ABSOLUTE
    ..\Drivers\STM32F1xx_HAL_Driver\Src\stm32f1xx_hal_pwr.c 0x00000000   Number         0  stm32f1xx_hal_pwr.o ABSOLUTE
    ..\Drivers\STM32F1xx_HAL_Driver\Src\stm32f1xx_hal_rcc.c 0x00000000   Number         0  stm32f1xx_hal_rcc.o ABSOLUTE
    ..\Drivers\STM32F1xx_HAL_Driver\Src\stm32f1xx_hal_rcc_ex.c 0x00000000   Number         0  stm32f1xx_hal_rcc_ex.o ABSOLUTE
    ..\Drivers\STM32F1xx_HAL_Driver\Src\stm32f1xx_hal_rtc.c 0x00000000   Number         0  stm32f1xx_hal_rtc.o ABSOLUTE
    ..\Drivers\STM32F1xx_HAL_Driver\Src\stm32f1xx_hal_rtc_ex.c 0x00000000   Number         0  stm32f1xx_hal_rtc_ex.o ABSOLUTE
    ..\Drivers\STM32F1xx_HAL_Driver\Src\stm32f1xx_hal_tim.c 0x00000000   Number         0  stm32f1xx_hal_tim.o ABSOLUTE
    ..\Drivers\STM32F1xx_HAL_Driver\Src\stm32f1xx_hal_tim_ex.c 0x00000000   Number         0  stm32f1xx_hal_tim_ex.o ABSOLUTE
    ..\Drivers\STM32F1xx_HAL_Driver\Src\stm32f1xx_hal_uart.c 0x00000000   Number         0  stm32f1xx_hal_uart.o ABSOLUTE
    ..\Middlewares\Third_Party\FreeRTOS\Source\portable\RVDS\ARM_CM3\port.c 0x00000000   Number         0  port.o ABSOLUTE
    ..\\Core\\Src\\stm32f1xx_hal_msp.c       0x00000000   Number         0  stm32f1xx_hal_msp.o ABSOLUTE
    ..\\Core\\Src\\stm32f1xx_it.c            0x00000000   Number         0  stm32f1xx_it.o ABSOLUTE
    ..\\Core\\Src\\system_stm32f1xx.c        0x00000000   Number         0  system_stm32f1xx.o ABSOLUTE
    ..\\Core\\api\\FIFO.c                    0x00000000   Number         0  fifo.o ABSOLUTE
    ..\\Core\\api\\I2CForward.c              0x00000000   Number         0  i2cforward.o ABSOLUTE
    ..\\Core\\api\\TemperatureInside.c       0x00000000   Number         0  temperatureinside.o ABSOLUTE
    ..\\Core\\api\\api_utc.c                 0x00000000   Number         0  api_utc.o ABSOLUTE
    ..\\Core\\api\\cm_backtrace\\cm_backtrace.c 0x00000000   Number         0  cm_backtrace.o ABSOLUTE
    ..\\Core\\api\\eeprom.c                  0x00000000   Number         0  eeprom.o ABSOLUTE
    ..\\Core\\api\\gpio_shell.c              0x00000000   Number         0  gpio_shell.o ABSOLUTE
    ..\\Core\\api\\print_monitor.c           0x00000000   Number         0  print_monitor.o ABSOLUTE
    ..\\Core\\api\\shell\\shell.c            0x00000000   Number         0  shell.o ABSOLUTE
    ..\\Core\\api\\shell\\shell_cmd_list.c   0x00000000   Number         0  shell_cmd_list.o ABSOLUTE
    ..\\Core\\api\\shell\\shell_ext.c        0x00000000   Number         0  shell_ext.o ABSOLUTE
    ..\\Core\\api\\shell\\shell_port.c       0x00000000   Number         0  shell_port.o ABSOLUTE
    ..\\Core\\bsp\\bsp_gpio.c                0x00000000   Number         0  bsp_gpio.o ABSOLUTE
    ..\\Core\\bsp\\bsp_i2c.c                 0x00000000   Number         0  bsp_i2c.o ABSOLUTE
    ..\\Core\\bsp\\bsp_i2ccomm.c             0x00000000   Number         0  bsp_i2ccomm.o ABSOLUTE
    ..\\Core\\bsp\\bsp_i2cs0.c               0x00000000   Number         0  bsp_i2cs0.o ABSOLUTE
    ..\\Core\\bsp\\bsp_i2cs1.c               0x00000000   Number         0  bsp_i2cs1.o ABSOLUTE
    ..\\Core\\bsp\\bsp_key.c                 0x00000000   Number         0  bsp_key.o ABSOLUTE
    ..\\Core\\bsp\\bsp_uartcomm.c            0x00000000   Number         0  bsp_uartcomm.o ABSOLUTE
    ..\\Core\\bsp\\bsp_usart1.c              0x00000000   Number         0  bsp_usart1.o ABSOLUTE
    ..\\Core\\bsp\\dev_fsm.c                 0x00000000   Number         0  dev_fsm.o ABSOLUTE
    ..\\Core\\bsp\\pwm.c                     0x00000000   Number         0  pwm.o ABSOLUTE
    ..\\Drivers\\STM32F1xx_HAL_Driver\\Src\\stm32f1xx_hal.c 0x00000000   Number         0  stm32f1xx_hal.o ABSOLUTE
    ..\\Drivers\\STM32F1xx_HAL_Driver\\Src\\stm32f1xx_hal_adc.c 0x00000000   Number         0  stm32f1xx_hal_adc.o ABSOLUTE
    ..\\Drivers\\STM32F1xx_HAL_Driver\\Src\\stm32f1xx_hal_adc_ex.c 0x00000000   Number         0  stm32f1xx_hal_adc_ex.o ABSOLUTE
    ..\\Drivers\\STM32F1xx_HAL_Driver\\Src\\stm32f1xx_hal_cortex.c 0x00000000   Number         0  stm32f1xx_hal_cortex.o ABSOLUTE
    ..\\Drivers\\STM32F1xx_HAL_Driver\\Src\\stm32f1xx_hal_crc.c 0x00000000   Number         0  stm32f1xx_hal_crc.o ABSOLUTE
    ..\\Drivers\\STM32F1xx_HAL_Driver\\Src\\stm32f1xx_hal_dma.c 0x00000000   Number         0  stm32f1xx_hal_dma.o ABSOLUTE
    ..\\Drivers\\STM32F1xx_HAL_Driver\\Src\\stm32f1xx_hal_exti.c 0x00000000   Number         0  stm32f1xx_hal_exti.o ABSOLUTE
    ..\\Drivers\\STM32F1xx_HAL_Driver\\Src\\stm32f1xx_hal_flash.c 0x00000000   Number         0  stm32f1xx_hal_flash.o ABSOLUTE
    ..\\Drivers\\STM32F1xx_HAL_Driver\\Src\\stm32f1xx_hal_flash_ex.c 0x00000000   Number         0  stm32f1xx_hal_flash_ex.o ABSOLUTE
    ..\\Drivers\\STM32F1xx_HAL_Driver\\Src\\stm32f1xx_hal_gpio.c 0x00000000   Number         0  stm32f1xx_hal_gpio.o ABSOLUTE
    ..\\Drivers\\STM32F1xx_HAL_Driver\\Src\\stm32f1xx_hal_gpio_ex.c 0x00000000   Number         0  stm32f1xx_hal_gpio_ex.o ABSOLUTE
    ..\\Drivers\\STM32F1xx_HAL_Driver\\Src\\stm32f1xx_hal_i2c.c 0x00000000   Number         0  stm32f1xx_hal_i2c.o ABSOLUTE
    ..\\Drivers\\STM32F1xx_HAL_Driver\\Src\\stm32f1xx_hal_pwr.c 0x00000000   Number         0  stm32f1xx_hal_pwr.o ABSOLUTE
    ..\\Drivers\\STM32F1xx_HAL_Driver\\Src\\stm32f1xx_hal_rcc.c 0x00000000   Number         0  stm32f1xx_hal_rcc.o ABSOLUTE
    ..\\Drivers\\STM32F1xx_HAL_Driver\\Src\\stm32f1xx_hal_rcc_ex.c 0x00000000   Number         0  stm32f1xx_hal_rcc_ex.o ABSOLUTE
    ..\\Drivers\\STM32F1xx_HAL_Driver\\Src\\stm32f1xx_hal_rtc.c 0x00000000   Number         0  stm32f1xx_hal_rtc.o ABSOLUTE
    ..\\Drivers\\STM32F1xx_HAL_Driver\\Src\\stm32f1xx_hal_rtc_ex.c 0x00000000   Number         0  stm32f1xx_hal_rtc_ex.o ABSOLUTE
    ..\\Drivers\\STM32F1xx_HAL_Driver\\Src\\stm32f1xx_hal_tim.c 0x00000000   Number         0  stm32f1xx_hal_tim.o ABSOLUTE
    ..\\Drivers\\STM32F1xx_HAL_Driver\\Src\\stm32f1xx_hal_tim_ex.c 0x00000000   Number         0  stm32f1xx_hal_tim_ex.o ABSOLUTE
    ..\\Drivers\\STM32F1xx_HAL_Driver\\Src\\stm32f1xx_hal_uart.c 0x00000000   Number         0  stm32f1xx_hal_uart.o ABSOLUTE
    ..\\Middlewares\\Third_Party\\FreeRTOS\\Source\\portable\\RVDS\\ARM_CM3\\port.c 0x00000000   Number         0  port.o ABSOLUTE
    cdrcmple.s                               0x00000000   Number         0  cdrcmple.o ABSOLUTE
    dc.s                                     0x00000000   Number         0  dc.o ABSOLUTE
    handlers.s                               0x00000000   Number         0  handlers.o ABSOLUTE
    init.s                                   0x00000000   Number         0  init.o ABSOLUTE
    startup_stm32f103xe.s                    0x00000000   Number         0  startup_stm32f103xe.o ABSOLUTE
    RESET                                    0x08000000   Section      304  startup_stm32f103xe.o(RESET)
    .ARM.Collect$$$$00000000                 0x08000130   Section        0  entry.o(.ARM.Collect$$$$00000000)
    .ARM.Collect$$$$00000001                 0x08000130   Section        4  entry2.o(.ARM.Collect$$$$00000001)
    .ARM.Collect$$$$00000004                 0x08000134   Section        4  entry5.o(.ARM.Collect$$$$00000004)
    .ARM.Collect$$$$00000008                 0x08000138   Section        0  entry7b.o(.ARM.Collect$$$$00000008)
    .ARM.Collect$$$$0000000A                 0x08000138   Section        0  entry8b.o(.ARM.Collect$$$$0000000A)
    .ARM.Collect$$$$0000000B                 0x08000138   Section        8  entry9a.o(.ARM.Collect$$$$0000000B)
    .ARM.Collect$$$$0000000E                 0x08000140   Section        4  entry12b.o(.ARM.Collect$$$$0000000E)
    .ARM.Collect$$$$0000000F                 0x08000144   Section        0  entry10a.o(.ARM.Collect$$$$0000000F)
    .ARM.Collect$$$$00000011                 0x08000144   Section        0  entry11a.o(.ARM.Collect$$$$00000011)
    .ARM.Collect$$$$00002712                 0x08000144   Section        4  entry2.o(.ARM.Collect$$$$00002712)
    __lit__00000000                          0x08000144   Data           4  entry2.o(.ARM.Collect$$$$00002712)
    .emb_text                                0x08000148   Section       16  cm_backtrace.o(.emb_text)
    .emb_text                                0x08000158   Section      150  port.o(.emb_text)
    .text                                    0x080001f0   Section        0  api_utc.o(.text)
    julianDayFromDate                        0x080001f1   Thumb Code   182  api_utc.o(.text)
    get_month                                0x080002f7   Thumb Code   122  api_utc.o(.text)
    GetSystemTime                            0x08000371   Thumb Code   296  api_utc.o(.text)
    floordiv                                 0x0800051b   Thumb Code    20  api_utc.o(.text)
    .text                                    0x080005a8   Section        0  fifo.o(.text)
    __get_IPSR                               0x080007d1   Thumb Code     6  fifo.o(.text)
    .text                                    0x080007d8   Section        0  print_monitor.o(.text)
    .text                                    0x0800088c   Section        0  eeprom.o(.text)
    ee_paraCovert                            0x080009ed   Thumb Code    22  eeprom.o(.text)
    eeUsage                                  0x08000a03   Thumb Code    16  eeprom.o(.text)
    cmd_EEPROM                               0x08000a13   Thumb Code   390  eeprom.o(.text)
    .text                                    0x08000c50   Section        0  temperatureinside.o(.text)
    TemperatureInside_GetAverageAdcVal       0x08000d1d   Thumb Code    34  temperatureinside.o(.text)
    TemperatureInside_Init                   0x08000d8f   Thumb Code    18  temperatureinside.o(.text)
    GetMcuTemperature                        0x08000da1   Thumb Code    72  temperatureinside.o(.text)
    .text                                    0x08000e28   Section        0  bsp_uartcomm.o(.text)
    com_getHandler                           0x08000e29   Thumb Code    48  bsp_uartcomm.o(.text)
    .text                                    0x080010fc   Section        0  bsp_gpio.o(.text)
    GPIO_InitGPIOs                           0x080010fd   Thumb Code    70  bsp_gpio.o(.text)
    MX_GPIO_Init                             0x0800117b   Thumb Code   110  bsp_gpio.o(.text)
    .text                                    0x08001328   Section        0  bsp_usart1.o(.text)
    .text                                    0x08001428   Section        0  bsp_i2c.o(.text)
    i2c1_int                                 0x08001429   Thumb Code    52  bsp_i2c.o(.text)
    .text                                    0x08001568   Section        0  initcall.o(.text)
    .text                                    0x0800158c   Section        0  pwm.o(.text)
    PWM_getBestWorkParaByFreq                0x0800158d   Thumb Code    50  pwm.o(.text)
    PWM_CfgRGBMode                           0x080015bf   Thumb Code   158  pwm.o(.text)
    PWM_getPWMDefaultConfig                  0x0800165d   Thumb Code    84  pwm.o(.text)
    PWM_calcDutyByPercent                    0x08001763   Thumb Code    18  pwm.o(.text)
    PWM_TIM1_Config                          0x08001823   Thumb Code   158  pwm.o(.text)
    PWN_ITConfig                             0x080018c1   Thumb Code    36  pwm.o(.text)
    pwmShellDuty                             0x08001913   Thumb Code    66  pwm.o(.text)
    PWM_Init                                 0x08001955   Thumb Code   368  pwm.o(.text)
    .text                                    0x08001af4   Section        0  bsp_i2cs0.o(.text)
    i2cs0_Delay                              0x08001af5   Thumb Code    12  bsp_i2cs0.o(.text)
    I2CS0_SCL_1                              0x08001b01   Thumb Code    20  bsp_i2cs0.o(.text)
    I2CS0_SCL_0                              0x08001b15   Thumb Code    20  bsp_i2cs0.o(.text)
    I2CS0_SDA_1                              0x08001b29   Thumb Code    20  bsp_i2cs0.o(.text)
    I2CS0_SDA_0                              0x08001b3d   Thumb Code    20  bsp_i2cs0.o(.text)
    i2cs0_CfgGpio                            0x08001b61   Thumb Code   166  bsp_i2cs0.o(.text)
    i2cs0_Start                              0x08001c09   Thumb Code    12  bsp_i2cs0.o(.text)
    i2cs0_SendByte                           0x08001c15   Thumb Code    90  bsp_i2cs0.o(.text)
    i2cs0_WaitTick                           0x08001c6f   Thumb Code    14  bsp_i2cs0.o(.text)
    i2cs0_ReadByte                           0x08001c7d   Thumb Code    76  bsp_i2cs0.o(.text)
    i2cs0_Ack                                0x08001cc9   Thumb Code    22  bsp_i2cs0.o(.text)
    i2cs0_NAck                               0x08001cdf   Thumb Code    16  bsp_i2cs0.o(.text)
    .text                                    0x08001e9c   Section        0  bsp_i2ccomm.o(.text)
    .text                                    0x08001f38   Section        0  bsp_i2cs1.o(.text)
    i2cs1_Delay                              0x08001f39   Thumb Code    12  bsp_i2cs1.o(.text)
    I2CS1_SCL_1                              0x08001f45   Thumb Code    20  bsp_i2cs1.o(.text)
    I2CS1_SCL_0                              0x08001f59   Thumb Code    20  bsp_i2cs1.o(.text)
    I2CS1_SDA_1                              0x08001f6d   Thumb Code    20  bsp_i2cs1.o(.text)
    I2CS1_SDA_0                              0x08001f81   Thumb Code    20  bsp_i2cs1.o(.text)
    i2cs1_CfgGpio                            0x08001fa5   Thumb Code   166  bsp_i2cs1.o(.text)
    i2cs1_Start                              0x0800204d   Thumb Code    12  bsp_i2cs1.o(.text)
    i2cs1_SendByte                           0x08002059   Thumb Code    90  bsp_i2cs1.o(.text)
    i2cs1_WaitTick                           0x080020b3   Thumb Code    14  bsp_i2cs1.o(.text)
    i2cs1_ReadByte                           0x080020c1   Thumb Code    76  bsp_i2cs1.o(.text)
    i2cs1_Ack                                0x0800210d   Thumb Code    22  bsp_i2cs1.o(.text)
    i2cs1_NAck                               0x08002123   Thumb Code    16  bsp_i2cs1.o(.text)
    .text                                    0x080022e0   Section        0  bsp_key.o(.text)
    DevTaskHandler                           0x08002355   Thumb Code   134  bsp_key.o(.text)
    Key_init                                 0x080023db   Thumb Code    26  bsp_key.o(.text)
    .text                                    0x0800244c   Section        0  shell.o(.text)
    shellWriteCommandLine                    0x08002475   Thumb Code    84  shell.o(.text)
    shellGetCommandName                      0x08002501   Thumb Code    76  shell.o(.text)
    shellSetUser                             0x080025fd   Thumb Code   102  shell.o(.text)
    shellAdd                                 0x08002663   Thumb Code    34  shell.o(.text)
    shellWriteByte                           0x08002745   Thumb Code    14  shell.o(.text)
    shellWriteCommandDesc                    0x08002753   Thumb Code    80  shell.o(.text)
    shellStringCopy                          0x0800282b   Thumb Code    24  shell.o(.text)
    shellStringCompare                       0x08002843   Thumb Code    90  shell.o(.text)
    shellGetCommandDesc                      0x0800289d   Thumb Code    48  shell.o(.text)
    shellParserParam                         0x08002d29   Thumb Code   142  shell.o(.text)
    shellRemoveParamQuotes                   0x08002db7   Thumb Code   104  shell.o(.text)
    shellShowVar                             0x08002e73   Thumb Code   160  shell.o(.text)
    shellWriteReturnValue                    0x08003009   Thumb Code   106  shell.o(.text)
    shellCheckPassword                       0x08003121   Thumb Code    62  shell.o(.text)
    shellHistoryAdd                          0x0800315f   Thumb Code   122  shell.o(.text)
    shellHistory                             0x080031d9   Thumb Code   240  shell.o(.text)
    .text                                    0x080037cc   Section        0  shell_ext.o(.text)
    shellExtNumType                          0x080037cd   Thumb Code    88  shell_ext.o(.text)
    shellExtToNum                            0x08003825   Thumb Code    54  shell_ext.o(.text)
    shellExtParseChar                        0x0800385b   Thumb Code    70  shell_ext.o(.text)
    shellExtParseString                      0x080038a1   Thumb Code    74  shell_ext.o(.text)
    shellExtParseNumber                      0x080038eb   Thumb Code   232  shell_ext.o(.text)
    shellExtParseVar                         0x080039d3   Thumb Code    36  shell_ext.o(.text)
    .text                                    0x08003b18   Section        0  shell_port.o(.text)
    .text                                    0x08003b64   Section        0  gpio_shell.o(.text)
    display_usage                            0x08003b65   Thumb Code    50  gpio_shell.o(.text)
    parse_arguments                          0x08003b97   Thumb Code   170  gpio_shell.o(.text)
    getGPIOActive                            0x08003c41   Thumb Code    82  gpio_shell.o(.text)
    setGPIOActiveHandler                     0x08003c93   Thumb Code    82  gpio_shell.o(.text)
    GPIO_shell                               0x08003ce5   Thumb Code    18  gpio_shell.o(.text)
    .text                                    0x08003f1c   Section        0  main.o(.text)
    DebugConfig                              0x08003f1d   Thumb Code    44  main.o(.text)
    MX_DMA_Init                              0x08003f49   Thumb Code    64  main.o(.text)
    .text                                    0x080043b4   Section        0  stm32f1xx_hal_msp.o(.text)
    .text                                    0x080045bc   Section        0  stm32f1xx_it.o(.text)
    .text                                    0x0800463c   Section        0  cm_backtrace.o(.text)
    get_cur_thread_stack_info                0x080046bb   Thumb Code    68  cm_backtrace.o(.text)
    get_cur_thread_name                      0x080046ff   Thumb Code     8  cm_backtrace.o(.text)
    dump_stack                               0x08004707   Thumb Code   124  cm_backtrace.o(.text)
    disassembly_ins_is_bl_blx                0x08004783   Thumb Code    48  cm_backtrace.o(.text)
    print_call_stack                         0x080048c7   Thumb Code   118  cm_backtrace.o(.text)
    fault_diagnosis                          0x080049d3   Thumb Code  1038  cm_backtrace.o(.text)
    statck_del_fpu_regs                      0x08004de1   Thumb Code    30  cm_backtrace.o(.text)
    cm_backtrace_hook                        0x08004dff   Thumb Code     2  cm_backtrace.o(.text)
    display_usage                            0x08005057   Thumb Code    10  cm_backtrace.o(.text)
    HardFault_shell                          0x08005061   Thumb Code   120  cm_backtrace.o(.text)
    .text                                    0x080051f0   Section       12  cmb_fault.o(.text)
    .text                                    0x080051fc   Section       36  startup_stm32f103xe.o(.text)
    .text                                    0x08005220   Section        0  system_stm32f1xx.o(.text)
    .text                                    0x080052c4   Section        0  list.o(.text)
    .text                                    0x08005358   Section        0  queue.o(.text)
    prvInitialiseNewQueue                    0x0800542f   Thumb Code    42  queue.o(.text)
    prvUnlockQueue                           0x080054bf   Thumb Code   126  queue.o(.text)
    prvIsQueueFull                           0x0800553d   Thumb Code    30  queue.o(.text)
    prvCopyDataToQueue                       0x0800555b   Thumb Code   126  queue.o(.text)
    prvInitialiseMutex                       0x0800577d   Thumb Code    30  queue.o(.text)
    prvGetDisinheritPriorityAfterTimeout     0x08005863   Thumb Code    20  queue.o(.text)
    prvIsQueueEmpty                          0x08005877   Thumb Code    26  queue.o(.text)
    prvCopyDataFromQueue                     0x08005cf1   Thumb Code    48  queue.o(.text)
    .text                                    0x080063d0   Section        0  tasks.o(.text)
    prvInitialiseTaskLists                   0x080063d1   Thumb Code    70  tasks.o(.text)
    prvAddNewTaskToReadyList                 0x08006417   Thumb Code   204  tasks.o(.text)
    prvInitialiseNewTask                     0x080064e3   Thumb Code   228  tasks.o(.text)
    prvResetNextTaskUnblockTime              0x08006627   Thumb Code    40  tasks.o(.text)
    prvDeleteTCB                             0x0800664f   Thumb Code    18  tasks.o(.text)
    prvAddCurrentTaskToDelayedList           0x08006a37   Thumb Code   140  tasks.o(.text)
    prvTaskIsTaskSuspended                   0x08006f69   Thumb Code    80  tasks.o(.text)
    prvCheckTasksWaitingTermination          0x08007171   Thumb Code    60  tasks.o(.text)
    prvIdleTask                              0x080071ad   Thumb Code    36  tasks.o(.text)
    prvTaskCheckFreeStackSpace               0x080072b5   Thumb Code    22  tasks.o(.text)
    prvListTasksWithinSingleList             0x08007349   Thumb Code   106  tasks.o(.text)
    .text                                    0x08008388   Section        0  timers.o(.text)
    prvInsertTimerInActiveList               0x08008389   Thumb Code    80  timers.o(.text)
    prvReloadTimer                           0x080083d9   Thumb Code    40  timers.o(.text)
    prvProcessExpiredTimer                   0x08008401   Thumb Code    62  timers.o(.text)
    prvSwitchTimerLists                      0x0800843f   Thumb Code    58  timers.o(.text)
    prvSampleTimeNow                         0x08008479   Thumb Code    40  timers.o(.text)
    prvProcessReceivedCommands               0x080084a1   Thumb Code   326  timers.o(.text)
    prvProcessTimerOrBlockTask               0x080085e7   Thumb Code   102  timers.o(.text)
    prvGetNextExpireTime                     0x0800864d   Thumb Code    36  timers.o(.text)
    prvTimerTask                             0x08008671   Thumb Code    26  timers.o(.text)
    prvCheckForValidListAndQueue             0x0800868b   Thumb Code    72  timers.o(.text)
    prvInitialiseNewTimer                    0x08008713   Thumb Code    88  timers.o(.text)
    .text                                    0x08008a80   Section        0  heap_4.o(.text)
    prvInsertBlockIntoFreeList               0x08008a81   Thumb Code    96  heap_4.o(.text)
    prvHeapInit                              0x08008ae1   Thumb Code    98  heap_4.o(.text)
    .text                                    0x08008dc0   Section        0  port.o(.text)
    prvTaskExitError                         0x08008dc1   Thumb Code    60  port.o(.text)
    .text                                    0x08009064   Section        0  stm32f1xx_hal_gpio.o(.text)
    .text                                    0x08009558   Section        0  stm32f1xx_hal_dma.o(.text)
    DMA_SetConfig                            0x08009661   Thumb Code    44  stm32f1xx_hal_dma.o(.text)
    .text                                    0x0800a458   Section        0  stm32f1xx_hal_tim.o(.text)
    TIM_DMAPeriodElapsedHalfCplt             0x0800a77b   Thumb Code    14  stm32f1xx_hal_tim.o(.text)
    TIM_DMAPeriodElapsedCplt                 0x0800a78b   Thumb Code    26  stm32f1xx_hal_tim.o(.text)
    TIM_DMADelayPulseCplt                    0x0800adb5   Thumb Code   124  stm32f1xx_hal_tim.o(.text)
    TIM_OC4_SetConfig                        0x0800cf1d   Thumb Code    74  stm32f1xx_hal_tim.o(.text)
    TIM_OC3_SetConfig                        0x0800cf67   Thumb Code   112  stm32f1xx_hal_tim.o(.text)
    TIM_OC1_SetConfig                        0x0800d049   Thumb Code   104  stm32f1xx_hal_tim.o(.text)
    TIM_TI4_SetConfig                        0x0800d121   Thumb Code    60  stm32f1xx_hal_tim.o(.text)
    TIM_TI3_SetConfig                        0x0800d15d   Thumb Code    56  stm32f1xx_hal_tim.o(.text)
    TIM_TI2_SetConfig                        0x0800d195   Thumb Code    58  stm32f1xx_hal_tim.o(.text)
    TIM_DMATriggerHalfCplt                   0x0800d565   Thumb Code    14  stm32f1xx_hal_tim.o(.text)
    TIM_DMATriggerCplt                       0x0800d573   Thumb Code    26  stm32f1xx_hal_tim.o(.text)
    TIM_ITRx_SetConfig                       0x0800dbf3   Thumb Code    18  stm32f1xx_hal_tim.o(.text)
    TIM_TI1_ConfigInputStage                 0x0800dc05   Thumb Code    38  stm32f1xx_hal_tim.o(.text)
    TIM_TI2_ConfigInputStage                 0x0800dc2b   Thumb Code    40  stm32f1xx_hal_tim.o(.text)
    TIM_SlaveTimer_SetConfig                 0x0800dd75   Thumb Code   178  stm32f1xx_hal_tim.o(.text)
    .text                                    0x0800df94   Section        0  stm32f1xx_hal_tim_ex.o(.text)
    TIM_CCxNChannelCmd                       0x0800e423   Thumb Code    34  stm32f1xx_hal_tim_ex.o(.text)
    TIM_DMAErrorCCxN                         0x0800e7b1   Thumb Code    68  stm32f1xx_hal_tim_ex.o(.text)
    TIM_DMADelayPulseNCplt                   0x0800e7f5   Thumb Code   104  stm32f1xx_hal_tim_ex.o(.text)
    .text                                    0x0800f68c   Section        0  stm32f1xx_hal_uart.o(.text)
    UART_SetConfig                           0x0800f68d   Thumb Code   248  stm32f1xx_hal_uart.o(.text)
    UART_WaitOnFlagUntilTimeout              0x0800f9e7   Thumb Code   146  stm32f1xx_hal_uart.o(.text)
    UART_EndRxTransfer                       0x0800fc91   Thumb Code   108  stm32f1xx_hal_uart.o(.text)
    UART_EndTxTransfer                       0x0800fcfd   Thumb Code    38  stm32f1xx_hal_uart.o(.text)
    UART_DMAError                            0x0800fd23   Thumb Code    80  stm32f1xx_hal_uart.o(.text)
    UART_DMATxHalfCplt                       0x0800fd75   Thumb Code    14  stm32f1xx_hal_uart.o(.text)
    UART_DMATransmitCplt                     0x0800fd85   Thumb Code    88  stm32f1xx_hal_uart.o(.text)
    UART_DMARxHalfCplt                       0x0800fe61   Thumb Code    36  stm32f1xx_hal_uart.o(.text)
    UART_DMAReceiveCplt                      0x0800fe87   Thumb Code   180  stm32f1xx_hal_uart.o(.text)
    UART_DMARxAbortCallback                  0x08010679   Thumb Code    56  stm32f1xx_hal_uart.o(.text)
    UART_DMATxAbortCallback                  0x080106b1   Thumb Code    56  stm32f1xx_hal_uart.o(.text)
    UART_DMATxOnlyAbortCallback              0x0801082b   Thumb Code    24  stm32f1xx_hal_uart.o(.text)
    UART_DMARxOnlyAbortCallback              0x080108cf   Thumb Code    28  stm32f1xx_hal_uart.o(.text)
    UART_EndTransmit_IT                      0x080109bf   Thumb Code    32  stm32f1xx_hal_uart.o(.text)
    UART_Transmit_IT                         0x080109df   Thumb Code    96  stm32f1xx_hal_uart.o(.text)
    UART_DMAAbortOnError                     0x08010a3f   Thumb Code    20  stm32f1xx_hal_uart.o(.text)
    UART_Receive_IT                          0x08010a53   Thumb Code   268  stm32f1xx_hal_uart.o(.text)
    .text                                    0x08010fdc   Section        0  stm32f1xx_hal.o(.text)
    .text                                    0x08011198   Section        0  stm32f1xx_hal_cortex.o(.text)
    __NVIC_SetPriority                       0x08011199   Thumb Code    32  stm32f1xx_hal_cortex.o(.text)
    __NVIC_GetPriorityGrouping               0x08011461   Thumb Code    12  stm32f1xx_hal_cortex.o(.text)
    .text                                    0x08011480   Section        0  stm32f1xx_hal_rcc.o(.text)
    RCC_Delay                                0x0801157f   Thumb Code    36  stm32f1xx_hal_rcc.o(.text)
    .text                                    0x08011dcc   Section        0  stm32f1xx_hal_rcc_ex.o(.text)
    .text                                    0x0801205c   Section        0  stm32f1xx_hal_i2c.o(.text)
    I2C_Flush_DR                             0x08012509   Thumb Code    18  stm32f1xx_hal_i2c.o(.text)
    I2C_IsAcknowledgeFailed                  0x0801251b   Thumb Code    62  stm32f1xx_hal_i2c.o(.text)
    I2C_WaitOnBTFFlagUntilTimeout            0x08012559   Thumb Code   102  stm32f1xx_hal_i2c.o(.text)
    I2C_WaitOnTXEFlagUntilTimeout            0x080125bf   Thumb Code   102  stm32f1xx_hal_i2c.o(.text)
    I2C_WaitOnMasterAddressFlagUntilTimeout  0x08012625   Thumb Code   250  stm32f1xx_hal_i2c.o(.text)
    I2C_WaitOnFlagUntilTimeout               0x0801271f   Thumb Code   206  stm32f1xx_hal_i2c.o(.text)
    I2C_MasterRequestWrite                   0x080127ed   Thumb Code   186  stm32f1xx_hal_i2c.o(.text)
    I2C_WaitOnRXNEFlagUntilTimeout           0x08012a1d   Thumb Code   138  stm32f1xx_hal_i2c.o(.text)
    I2C_MasterRequestRead                    0x08012aa7   Thumb Code   308  stm32f1xx_hal_i2c.o(.text)
    I2C_WaitOnSTOPFlagUntilTimeout           0x080130d3   Thumb Code    98  stm32f1xx_hal_i2c.o(.text)
    I2C_DMAError                             0x080135b9   Thumb Code    70  stm32f1xx_hal_i2c.o(.text)
    I2C_DMAXferCplt                          0x080135ff   Thumb Code   304  stm32f1xx_hal_i2c.o(.text)
    I2C_RequestMemoryWrite                   0x08013ce1   Thumb Code   220  stm32f1xx_hal_i2c.o(.text)
    I2C_RequestMemoryRead                    0x08013f19   Thumb Code   370  stm32f1xx_hal_i2c.o(.text)
    I2C_DMAAbort                             0x080153df   Thumb Code   242  stm32f1xx_hal_i2c.o(.text)
    I2C_ITError                              0x08015987   Thumb Code   420  stm32f1xx_hal_i2c.o(.text)
    I2C_SlaveReceive_BTF                     0x08015bb5   Thumb Code    26  stm32f1xx_hal_i2c.o(.text)
    I2C_SlaveReceive_RXNE                    0x08015bcf   Thumb Code    70  stm32f1xx_hal_i2c.o(.text)
    I2C_SlaveTransmit_BTF                    0x08015c15   Thumb Code    26  stm32f1xx_hal_i2c.o(.text)
    I2C_SlaveTransmit_TXE                    0x08015c2f   Thumb Code    70  stm32f1xx_hal_i2c.o(.text)
    I2C_Slave_STOPF                          0x08015c75   Thumb Code   386  stm32f1xx_hal_i2c.o(.text)
    I2C_Slave_ADDR                           0x08015df7   Thumb Code   112  stm32f1xx_hal_i2c.o(.text)
    I2C_MasterReceive_BTF                    0x08015e67   Thumb Code   294  stm32f1xx_hal_i2c.o(.text)
    I2C_WaitOnSTOPRequestThroughIT           0x08015f8d   Thumb Code    74  stm32f1xx_hal_i2c.o(.text)
    I2C_MasterReceive_RXNE                   0x08015fd7   Thumb Code   240  stm32f1xx_hal_i2c.o(.text)
    I2C_MemoryTransmit_TXE_BTF               0x080160c7   Thumb Code   210  stm32f1xx_hal_i2c.o(.text)
    I2C_MasterTransmit_BTF                   0x08016199   Thumb Code   160  stm32f1xx_hal_i2c.o(.text)
    I2C_MasterTransmit_TXE                   0x08016239   Thumb Code   216  stm32f1xx_hal_i2c.o(.text)
    I2C_Master_ADDR                          0x08016311   Thumb Code   640  stm32f1xx_hal_i2c.o(.text)
    I2C_Master_ADD10                         0x08016591   Thumb Code    42  stm32f1xx_hal_i2c.o(.text)
    I2C_Master_SB                            0x080165bb   Thumb Code   158  stm32f1xx_hal_i2c.o(.text)
    I2C_ConvertOtherXferOptions              0x08016659   Thumb Code    28  stm32f1xx_hal_i2c.o(.text)
    I2C_Slave_AF                             0x0801684f   Thumb Code   162  stm32f1xx_hal_i2c.o(.text)
    .text                                    0x080169ec   Section        0  stm32f1xx_hal_rtc_ex.o(.text)
    .text                                    0x08016cd8   Section        0  stm32f1xx_hal_adc.o(.text)
    .text                                    0x08017a94   Section        0  stm32f1xx_hal_adc_ex.o(.text)
    .text                                    0x080184a4   Section        0  llushr.o(.text)
    .text                                    0x080184c4   Section        0  memcpya.o(.text)
    .text                                    0x080184e8   Section        0  memseta.o(.text)
    .text                                    0x0801850c   Section        0  strncpy.o(.text)
    .text                                    0x08018524   Section        0  strlen.o(.text)
    .text                                    0x08018532   Section        0  strcmp.o(.text)
    .text                                    0x0801854e   Section        0  strncmp.o(.text)
    .text                                    0x0801856c   Section        0  strtok.o(.text)
    .text                                    0x080185b0   Section        0  strtol.o(.text)
    .text                                    0x08018620   Section        0  atoi.o(.text)
    .text                                    0x0801863a   Section        0  fmul.o(.text)
    .text                                    0x0801869e   Section        0  fdiv.o(.text)
    .text                                    0x0801871a   Section        0  dadd.o(.text)
    .text                                    0x08018868   Section        0  ddiv.o(.text)
    .text                                    0x08018946   Section        0  fflti.o(.text)
    .text                                    0x08018958   Section        0  ffltui.o(.text)
    .text                                    0x08018962   Section        0  dflti.o(.text)
    .text                                    0x08018984   Section        0  ffixi.o(.text)
    .text                                    0x080189b6   Section        0  dfixi.o(.text)
    .text                                    0x080189f4   Section        0  f2d.o(.text)
    .text                                    0x08018a1a   Section        0  d2f.o(.text)
    .text                                    0x08018a52   Section        0  uidiv.o(.text)
    .text                                    0x08018a7e   Section        0  uldiv.o(.text)
    .text                                    0x08018ae0   Section        0  llshl.o(.text)
    .text                                    0x08018afe   Section        0  llsshr.o(.text)
    .text                                    0x08018b24   Section        0  ctype_o.o(.text)
    .text                                    0x08018b2c   Section        0  _strtoul.o(.text)
    .text                                    0x08018bca   Section        0  iusefp.o(.text)
    .text                                    0x08018bca   Section        0  fepilogue.o(.text)
    .text                                    0x08018c38   Section        0  depilogue.o(.text)
    .text                                    0x08018cf2   Section        0  dmul.o(.text)
    .text                                    0x08018dd6   Section        0  dfixul.o(.text)
    .text                                    0x08018e08   Section       48  cdrcmple.o(.text)
    .text                                    0x08018e38   Section       36  init.o(.text)
    .text                                    0x08018e5c   Section        0  _chval.o(.text)
    .text                                    0x08018e78   Section        0  __dczerorl2.o(.text)
    i.Error_Handler                          0x08018ece   Section        0  main.o(i.Error_Handler)
    i.FIFO_Empty                             0x08018ed4   Section        0  fifo.o(i.FIFO_Empty)
    i.UART_sendByte                          0x08018ee2   Section        0  bsp_uartcomm.o(i.UART_sendByte)
    i.__0printf                              0x08018ef4   Section        0  printfa.o(i.__0printf)
    i.__0sprintf                             0x08018f14   Section        0  printfa.o(i.__0sprintf)
    i.__0vsnprintf                           0x08018f3c   Section        0  printfa.o(i.__0vsnprintf)
    i.__aeabi_errno_addr                     0x08018f70   Section        0  errno.o(i.__aeabi_errno_addr)
    i.__scatterload_copy                     0x08018f78   Section       14  handlers.o(i.__scatterload_copy)
    i.__scatterload_null                     0x08018f86   Section        2  handlers.o(i.__scatterload_null)
    i.__scatterload_zeroinit                 0x08018f88   Section       14  handlers.o(i.__scatterload_zeroinit)
    i._fp_digits                             0x08018f98   Section        0  printfa.o(i._fp_digits)
    _fp_digits                               0x08018f99   Thumb Code   366  printfa.o(i._fp_digits)
    i._printf_core                           0x0801911c   Section        0  printfa.o(i._printf_core)
    _printf_core                             0x0801911d   Thumb Code  1704  printfa.o(i._printf_core)
    i._printf_post_padding                   0x080197d0   Section        0  printfa.o(i._printf_post_padding)
    _printf_post_padding                     0x080197d1   Thumb Code    36  printfa.o(i._printf_post_padding)
    i._printf_pre_padding                    0x080197f4   Section        0  printfa.o(i._printf_pre_padding)
    _printf_pre_padding                      0x080197f5   Thumb Code    46  printfa.o(i._printf_pre_padding)
    i._snputc                                0x08019822   Section        0  printfa.o(i._snputc)
    _snputc                                  0x08019823   Thumb Code    22  printfa.o(i._snputc)
    i._sputc                                 0x08019838   Section        0  printfa.o(i._sputc)
    _sputc                                   0x08019839   Thumb Code    10  printfa.o(i._sputc)
    .constdata                               0x08019844   Section       48  api_utc.o(.constdata)
    .constdata                               0x08019874   Section       21  eeprom.o(.constdata)
    .constdata                               0x08019889   Section       28  temperatureinside.o(.constdata)
    .constdata                               0x080198a8   Section      168  bsp_gpio.o(.constdata)
    g_gpioConfigComm                         0x080198a8   Data         168  bsp_gpio.o(.constdata)
    .constdata                               0x08019950   Section       41  pwm.o(.constdata)
    g_tablePreScale                          0x08019950   Data          24  pwm.o(.constdata)
    .constdata                               0x08019979   Section      165  shell.o(.constdata)
    .constdata                               0x08019a20   Section       42  gpio_shell.o(.constdata)
    handlerList                              0x08019a20   Data          12  gpio_shell.o(.constdata)
    arglist                                  0x08019a2c   Data          12  gpio_shell.o(.constdata)
    .constdata                               0x08019a4a   Section       18  main.o(.constdata)
    .constdata                               0x08019a5c   Section      276  cm_backtrace.o(.constdata)
    print_info                               0x08019a5c   Data         152  cm_backtrace.o(.constdata)
    __FUNCTION__                             0x08019b0d   Data          26  cm_backtrace.o(.constdata)
    __FUNCTION__                             0x08019b27   Data          20  cm_backtrace.o(.constdata)
    __FUNCTION__                             0x08019b3b   Data          21  cm_backtrace.o(.constdata)
    .constdata                               0x08019b70   Section       24  system_stm32f1xx.o(.constdata)
    .constdata                               0x08019b88   Section       18  stm32f1xx_hal_rcc.o(.constdata)
    aPLLMULFactorTable                       0x08019b88   Data          16  stm32f1xx_hal_rcc.o(.constdata)
    aPredivFactorTable                       0x08019b98   Data           2  stm32f1xx_hal_rcc.o(.constdata)
    .constdata                               0x08019b9a   Section       18  stm32f1xx_hal_rcc_ex.o(.constdata)
    aPLLMULFactorTable                       0x08019b9a   Data          16  stm32f1xx_hal_rcc_ex.o(.constdata)
    aPredivFactorTable                       0x08019baa   Data           2  stm32f1xx_hal_rcc_ex.o(.constdata)
    .constdata                               0x08019bac   Section      129  ctype_o.o(.constdata)
    .constdata                               0x08019c30   Section        4  ctype_o.o(.constdata)
    table                                    0x08019c30   Data           4  ctype_o.o(.constdata)
    .conststring                             0x08019c34   Section       48  api_utc.o(.conststring)
    .conststring                             0x08019c64   Section       75  eeprom.o(.conststring)
    .conststring                             0x08019cb0   Section       46  bsp_gpio.o(.conststring)
    .conststring                             0x08019ce0   Section      345  shell.o(.conststring)
    .conststring                             0x08019e3c   Section       79  gpio_shell.o(.conststring)
    .conststring                             0x08019e8c   Section      265  main.o(.conststring)
    .conststring                             0x08019f98   Section     2169  cm_backtrace.o(.conststring)
    shellCommand                             0x0801a834   Section       16  eeprom.o(shellCommand)
    __tagsym$$used                           0x0801a834   Number         0  eeprom.o(shellCommand)
    shellCommand                             0x0801a844   Section       16  temperatureinside.o(shellCommand)
    __tagsym$$used                           0x0801a844   Number         0  temperatureinside.o(shellCommand)
    shellCommand                             0x0801a854   Section       16  pwm.o(shellCommand)
    __tagsym$$used                           0x0801a854   Number         0  pwm.o(shellCommand)
    shellCommand                             0x0801a864   Section      240  shell.o(shellCommand)
    __tagsym$$used                           0x0801a864   Number         0  shell.o(shellCommand)
    __tagsym$$used                           0x0801a874   Number         0  shell.o(shellCommand)
    __tagsym$$used                           0x0801a884   Number         0  shell.o(shellCommand)
    __tagsym$$used                           0x0801a894   Number         0  shell.o(shellCommand)
    __tagsym$$used                           0x0801a8a4   Number         0  shell.o(shellCommand)
    __tagsym$$used                           0x0801a8b4   Number         0  shell.o(shellCommand)
    __tagsym$$used                           0x0801a8c4   Number         0  shell.o(shellCommand)
    __tagsym$$used                           0x0801a8d4   Number         0  shell.o(shellCommand)
    __tagsym$$used                           0x0801a8e4   Number         0  shell.o(shellCommand)
    __tagsym$$used                           0x0801a8f4   Number         0  shell.o(shellCommand)
    __tagsym$$used                           0x0801a904   Number         0  shell.o(shellCommand)
    __tagsym$$used                           0x0801a914   Number         0  shell.o(shellCommand)
    __tagsym$$used                           0x0801a924   Number         0  shell.o(shellCommand)
    __tagsym$$used                           0x0801a934   Number         0  shell.o(shellCommand)
    __tagsym$$used                           0x0801a944   Number         0  shell.o(shellCommand)
    shellCommand                             0x0801a954   Section       16  gpio_shell.o(shellCommand)
    __tagsym$$used                           0x0801a954   Number         0  gpio_shell.o(shellCommand)
    shellCommand                             0x0801a964   Section       16  main.o(shellCommand)
    __tagsym$$used                           0x0801a964   Number         0  main.o(shellCommand)
    shellCommand                             0x0801a974   Section       16  cm_backtrace.o(shellCommand)
    __tagsym$$used                           0x0801a974   Number         0  cm_backtrace.o(shellCommand)
    .initcall.1.core.init                    0x0801a984   Section        4  temperatureinside.o(.initcall.1.core.init)
    __initcall_1TemperatureInside_Init       0x0801a984   Data           4  temperatureinside.o(.initcall.1.core.init)
    .initcall.1.core.init                    0x0801a988   Section        4  pwm.o(.initcall.1.core.init)
    __initcall_1PWM_Init                     0x0801a988   Data           4  pwm.o(.initcall.1.core.init)
    .initcall.1.core.init                    0x0801a98c   Section        4  bsp_key.o(.initcall.1.core.init)
    __initcall_1Key_init                     0x0801a98c   Data           4  bsp_key.o(.initcall.1.core.init)
    .initcall.2.app.init                     0x0801a990   Section       12  initcall.o(.initcall.2.app.init)
    __initcall_2DemoAppInitStart             0x0801a990   Data           4  initcall.o(.initcall.2.app.init)
    __initcall_2DemoAppInitEnd               0x0801a994   Data           4  initcall.o(.initcall.2.app.init)
    __initcall_2DemoAppInit                  0x0801a998   Data           4  initcall.o(.initcall.2.app.init)
    .initcall.2.app.init                     0x0801a99c   Section        4  bsp_i2cs0.o(.initcall.2.app.init)
    __initcall_2i2cs0_init                   0x0801a99c   Data           4  bsp_i2cs0.o(.initcall.2.app.init)
    .initcall.2.app.init                     0x0801a9a0   Section        4  bsp_i2cs1.o(.initcall.2.app.init)
    __initcall_2i2cs1_init                   0x0801a9a0   Data           4  bsp_i2cs1.o(.initcall.2.app.init)
    .data                                    0x20000000   Section        4  print_monitor.o(.data)
    g_Queue_uartResend                       0x20000000   Data           4  print_monitor.o(.data)
    .data                                    0x20000004   Section        1  eeprom.o(.data)
    .data                                    0x20000005   Section        1  temperatureinside.o(.data)
    g_adcConvertFinished                     0x20000005   Data           1  temperatureinside.o(.data)
    .data                                    0x20000008   Section        5  bsp_uartcomm.o(.data)
    g_pUARTSHandler                          0x20000008   Data           4  bsp_uartcomm.o(.data)
    .data                                    0x20000010   Section      128  bsp_usart1.o(.data)
    .data                                    0x20000090   Section        8  pwm.o(.data)
    dutyPercent                              0x20000090   Data           2  pwm.o(.data)
    count                                    0x20000094   Data           4  pwm.o(.data)
    .data                                    0x20000098   Section        4  bsp_i2cs0.o(.data)
    g_I2CS0_semaphore                        0x20000098   Data           4  bsp_i2cs0.o(.data)
    .data                                    0x2000009c   Section        4  bsp_i2cs1.o(.data)
    g_I2CS1_semaphore                        0x2000009c   Data           4  bsp_i2cs1.o(.data)
    .data                                    0x200000a0   Section        8  bsp_key.o(.data)
    g_key1                                   0x200000a0   Data           8  bsp_key.o(.data)
    .data                                    0x200000a8   Section       84  shell.o(.data)
    shellText                                0x200000a8   Data          84  shell.o(.data)
    .data                                    0x20000100   Section       40  main.o(.data)
    g_utc_time_firmware_build                0x20000118   Data           8  main.o(.data)
    projectInfo                              0x20000120   Data           4  main.o(.data)
    lastTick                                 0x20000124   Data           4  main.o(.data)
    .data                                    0x20000128   Section       60  cm_backtrace.o(.data)
    main_stack_start_addr                    0x20000128   Data           4  cm_backtrace.o(.data)
    main_stack_size                          0x2000012c   Data           4  cm_backtrace.o(.data)
    code_start_addr                          0x20000130   Data           4  cm_backtrace.o(.data)
    code_size                                0x20000134   Data           4  cm_backtrace.o(.data)
    init_ok                                  0x20000138   Data           1  cm_backtrace.o(.data)
    on_fault                                 0x20000139   Data           1  cm_backtrace.o(.data)
    stack_is_overflow                        0x2000013a   Data           1  cm_backtrace.o(.data)
    statck_has_fpu_regs                      0x2000013b   Data           1  cm_backtrace.o(.data)
    on_thread_before_fault                   0x2000013c   Data           1  cm_backtrace.o(.data)
    hrtc                                     0x20000140   Data          36  cm_backtrace.o(.data)
    .data                                    0x20000164   Section        4  system_stm32f1xx.o(.data)
    .data                                    0x20000168   Section       64  tasks.o(.data)
    pxDelayedTaskList                        0x2000016c   Data           4  tasks.o(.data)
    pxOverflowDelayedTaskList                0x20000170   Data           4  tasks.o(.data)
    uxDeletedTasksWaitingCleanUp             0x20000174   Data           4  tasks.o(.data)
    uxCurrentNumberOfTasks                   0x20000178   Data           4  tasks.o(.data)
    xTickCount                               0x2000017c   Data           4  tasks.o(.data)
    uxTopReadyPriority                       0x20000180   Data           4  tasks.o(.data)
    xSchedulerRunning                        0x20000184   Data           4  tasks.o(.data)
    xPendedTicks                             0x20000188   Data           4  tasks.o(.data)
    xYieldPending                            0x2000018c   Data           4  tasks.o(.data)
    xNumOfOverflows                          0x20000190   Data           4  tasks.o(.data)
    uxTaskNumber                             0x20000194   Data           4  tasks.o(.data)
    xNextTaskUnblockTime                     0x20000198   Data           4  tasks.o(.data)
    xIdleTaskHandle                          0x2000019c   Data           4  tasks.o(.data)
    uxSchedulerSuspended                     0x200001a4   Data           4  tasks.o(.data)
    .data                                    0x200001a8   Section       20  timers.o(.data)
    pxCurrentTimerList                       0x200001a8   Data           4  timers.o(.data)
    pxOverflowTimerList                      0x200001ac   Data           4  timers.o(.data)
    xTimerQueue                              0x200001b0   Data           4  timers.o(.data)
    xTimerTaskHandle                         0x200001b4   Data           4  timers.o(.data)
    xLastTime                                0x200001b8   Data           4  timers.o(.data)
    .data                                    0x200001bc   Section       32  heap_4.o(.data)
    xStart                                   0x200001bc   Data           8  heap_4.o(.data)
    pxEnd                                    0x200001c4   Data           4  heap_4.o(.data)
    xFreeBytesRemaining                      0x200001c8   Data           4  heap_4.o(.data)
    xMinimumEverFreeBytesRemaining           0x200001cc   Data           4  heap_4.o(.data)
    xNumberOfSuccessfulAllocations           0x200001d0   Data           4  heap_4.o(.data)
    xNumberOfSuccessfulFrees                 0x200001d4   Data           4  heap_4.o(.data)
    xBlockAllocatedBit                       0x200001d8   Data           4  heap_4.o(.data)
    .data                                    0x200001dc   Section       12  port.o(.data)
    uxCriticalNesting                        0x200001dc   Data           4  port.o(.data)
    ucMaxSysCallPriority                     0x200001e0   Data           1  port.o(.data)
    ulMaxPRIGROUPValue                       0x200001e4   Data           4  port.o(.data)
    .data                                    0x200001e8   Section        9  stm32f1xx_hal.o(.data)
    .data                                    0x200001f4   Section        4  strtok.o(.data)
    state                                    0x200001f4   Data           4  strtok.o(.data)
    .data                                    0x200001f8   Section        4  stdout.o(.data)
    .data                                    0x200001fc   Section        4  errno.o(.data)
    _errno                                   0x200001fc   Data           4  errno.o(.data)
    .bss                                     0x20000200   Section     1024  eeprom.o(.bss)
    EEPROM_Buf                               0x20000200   Data        1024  eeprom.o(.bss)
    .bss                                     0x20000600   Section      132  temperatureinside.o(.bss)
    Temp_RawData                             0x20000600   Data          16  temperatureinside.o(.bss)
    AdcHandle                                0x20000654   Data          48  temperatureinside.o(.bss)
    .bss                                     0x20000684   Section      618  bsp_usart1.o(.bss)
    g_buffSend                               0x200006c8   Data         350  bsp_usart1.o(.bss)
    g_buffRec                                0x20000826   Data         200  bsp_usart1.o(.bss)
    .bss                                     0x200008f0   Section      120  pwm.o(.bss)
    .bss                                     0x20000968   Section       56  bsp_i2cs0.o(.bss)
    GPIO_SDA_In_I2CS0                        0x20000968   Data          28  bsp_i2cs0.o(.bss)
    GPIO_SDA_Out_I2CS0                       0x20000984   Data          28  bsp_i2cs0.o(.bss)
    .bss                                     0x200009a0   Section       56  bsp_i2cs1.o(.bss)
    GPIO_SDA_In_I2CS1                        0x200009a0   Data          28  bsp_i2cs1.o(.bss)
    GPIO_SDA_Out_I2CS1                       0x200009bc   Data          28  bsp_i2cs1.o(.bss)
    .bss                                     0x200009d8   Section       29  shell.o(.bss)
    shellList                                0x200009d8   Data          20  shell.o(.bss)
    buffer                                   0x200009ec   Data           9  shell.o(.bss)
    .bss                                     0x200009f8   Section      308  shell_port.o(.bss)
    shellBuffer                              0x20000a64   Data         200  shell_port.o(.bss)
    .bss                                     0x20000b2c   Section      200  main.o(.bss)
    .bss                                     0x20000bf4   Section      308  cm_backtrace.o(.bss)
    fw_name                                  0x20000bf4   Data          32  cm_backtrace.o(.bss)
    hw_ver                                   0x20000c14   Data          32  cm_backtrace.o(.bss)
    sw_ver                                   0x20000c34   Data          32  cm_backtrace.o(.bss)
    call_stack_info                          0x20000c54   Data         144  cm_backtrace.o(.bss)
    regs                                     0x20000ce4   Data          68  cm_backtrace.o(.bss)
    .bss                                     0x20000d28   Section       64  queue.o(.bss)
    .bss                                     0x20000d68   Section     1220  tasks.o(.bss)
    pxReadyTasksLists                        0x20000d68   Data        1120  tasks.o(.bss)
    xDelayedTaskList1                        0x200011c8   Data          20  tasks.o(.bss)
    xDelayedTaskList2                        0x200011dc   Data          20  tasks.o(.bss)
    xPendingReadyList                        0x200011f0   Data          20  tasks.o(.bss)
    xTasksWaitingTermination                 0x20001204   Data          20  tasks.o(.bss)
    xSuspendedTaskList                       0x20001218   Data          20  tasks.o(.bss)
    .bss                                     0x2000122c   Section       40  timers.o(.bss)
    xActiveTimerList1                        0x2000122c   Data          20  timers.o(.bss)
    xActiveTimerList2                        0x20001240   Data          20  timers.o(.bss)
    .bss                                     0x20001254   Section    30720  heap_4.o(.bss)
    ucHeap                                   0x20001254   Data       30720  heap_4.o(.bss)
    STACK                                    0x20008a58   Section     1024  startup_stm32f103xe.o(STACK)

    Global Symbols

    Symbol Name                              Value     Ov Type        Size  Object(Section)

    BuildAttributes$$THM_ISAv4$P$D$K$B$S$PE$A:L22UL41UL21$X:L11$S22US41US21$IEEE1$IW$USESV6$~STKCKD$USESV7$~SHL$OTIME$ROPI$EBA8$MICROLIB$REQ8$PRES8$EABIv2 0x00000000   Number         0  anon$$obj.o ABSOLUTE
    __ARM_use_no_argv                        0x00000000   Number         0  main.o ABSOLUTE
    _printf_a                                0x00000000   Number         0  stubs.o ABSOLUTE
    _printf_c                                0x00000000   Number         0  stubs.o ABSOLUTE
    _printf_charcount                        0x00000000   Number         0  stubs.o ABSOLUTE
    _printf_d                                0x00000000   Number         0  stubs.o ABSOLUTE
    _printf_e                                0x00000000   Number         0  stubs.o ABSOLUTE
    _printf_f                                0x00000000   Number         0  stubs.o ABSOLUTE
    _printf_flags                            0x00000000   Number         0  stubs.o ABSOLUTE
    _printf_fp_dec                           0x00000000   Number         0  stubs.o ABSOLUTE
    _printf_fp_hex                           0x00000000   Number         0  stubs.o ABSOLUTE
    _printf_g                                0x00000000   Number         0  stubs.o ABSOLUTE
    _printf_i                                0x00000000   Number         0  stubs.o ABSOLUTE
    _printf_int_dec                          0x00000000   Number         0  stubs.o ABSOLUTE
    _printf_l                                0x00000000   Number         0  stubs.o ABSOLUTE
    _printf_lc                               0x00000000   Number         0  stubs.o ABSOLUTE
    _printf_ll                               0x00000000   Number         0  stubs.o ABSOLUTE
    _printf_lld                              0x00000000   Number         0  stubs.o ABSOLUTE
    _printf_lli                              0x00000000   Number         0  stubs.o ABSOLUTE
    _printf_llo                              0x00000000   Number         0  stubs.o ABSOLUTE
    _printf_llu                              0x00000000   Number         0  stubs.o ABSOLUTE
    _printf_llx                              0x00000000   Number         0  stubs.o ABSOLUTE
    _printf_longlong_dec                     0x00000000   Number         0  stubs.o ABSOLUTE
    _printf_longlong_hex                     0x00000000   Number         0  stubs.o ABSOLUTE
    _printf_longlong_oct                     0x00000000   Number         0  stubs.o ABSOLUTE
    _printf_ls                               0x00000000   Number         0  stubs.o ABSOLUTE
    _printf_mbtowc                           0x00000000   Number         0  stubs.o ABSOLUTE
    _printf_n                                0x00000000   Number         0  stubs.o ABSOLUTE
    _printf_o                                0x00000000   Number         0  stubs.o ABSOLUTE
    _printf_p                                0x00000000   Number         0  stubs.o ABSOLUTE
    _printf_percent                          0x00000000   Number         0  stubs.o ABSOLUTE
    _printf_pre_padding                      0x00000000   Number         0  stubs.o ABSOLUTE
    _printf_return_value                     0x00000000   Number         0  stubs.o ABSOLUTE
    _printf_s                                0x00000000   Number         0  stubs.o ABSOLUTE
    _printf_sizespec                         0x00000000   Number         0  stubs.o ABSOLUTE
    _printf_str                              0x00000000   Number         0  stubs.o ABSOLUTE
    _printf_truncate_signed                  0x00000000   Number         0  stubs.o ABSOLUTE
    _printf_truncate_unsigned                0x00000000   Number         0  stubs.o ABSOLUTE
    _printf_u                                0x00000000   Number         0  stubs.o ABSOLUTE
    _printf_wc                               0x00000000   Number         0  stubs.o ABSOLUTE
    _printf_wctomb                           0x00000000   Number         0  stubs.o ABSOLUTE
    _printf_widthprec                        0x00000000   Number         0  stubs.o ABSOLUTE
    _printf_x                                0x00000000   Number         0  stubs.o ABSOLUTE
    __arm_fini_                               - Undefined Weak Reference
    __cpp_initialize__aeabi_                  - Undefined Weak Reference
    __cxa_finalize                            - Undefined Weak Reference
    _clock_init                               - Undefined Weak Reference
    _microlib_exit                            - Undefined Weak Reference
    __Vectors_Size                           0x00000130   Number         0  startup_stm32f103xe.o ABSOLUTE
    Image$$ER_IROM1$$Base                    0x08000000   Number         0  anon$$obj.o ABSOLUTE
    __Vectors                                0x08000000   Data           4  startup_stm32f103xe.o(RESET)
    __Vectors_End                            0x08000130   Data           0  startup_stm32f103xe.o(RESET)
    __main                                   0x08000131   Thumb Code     0  entry.o(.ARM.Collect$$$$00000000)
    _main_stk                                0x08000131   Thumb Code     0  entry2.o(.ARM.Collect$$$$00000001)
    _main_scatterload                        0x08000135   Thumb Code     0  entry5.o(.ARM.Collect$$$$00000004)
    __main_after_scatterload                 0x08000139   Thumb Code     0  entry5.o(.ARM.Collect$$$$00000004)
    _main_clock                              0x08000139   Thumb Code     0  entry7b.o(.ARM.Collect$$$$00000008)
    _main_cpp_init                           0x08000139   Thumb Code     0  entry8b.o(.ARM.Collect$$$$0000000A)
    _main_init                               0x08000139   Thumb Code     0  entry9a.o(.ARM.Collect$$$$0000000B)
    __rt_lib_shutdown_fini                   0x08000141   Thumb Code     0  entry12b.o(.ARM.Collect$$$$0000000E)
    __rt_final_cpp                           0x08000145   Thumb Code     0  entry10a.o(.ARM.Collect$$$$0000000F)
    __rt_final_exit                          0x08000145   Thumb Code     0  entry11a.o(.ARM.Collect$$$$00000011)
    __asm___14_cm_backtrace_c_13c737ea__cmb_get_msp 0x08000149   Thumb Code     6  cm_backtrace.o(.emb_text)
    __asm___14_cm_backtrace_c_13c737ea__cmb_get_psp 0x0800014f   Thumb Code     6  cm_backtrace.o(.emb_text)
    __asm___14_cm_backtrace_c_13c737ea__cmb_get_sp 0x08000155   Thumb Code     4  cm_backtrace.o(.emb_text)
    SVC_Handler                              0x08000159   Thumb Code    32  port.o(.emb_text)
    __asm___6_port_c_39a90d8d__prvStartFirstTask 0x0800017d   Thumb Code    28  port.o(.emb_text)
    PendSV_Handler                           0x0800019d   Thumb Code    72  port.o(.emb_text)
    vPortGetIPSR                             0x080001e9   Thumb Code     6  port.o(.emb_text)
    split                                    0x080002a7   Thumb Code    80  api_utc.o(.text)
    currentSecsSinceEpoch                    0x08000499   Thumb Code   130  api_utc.o(.text)
    FIFO_Init                                0x080005a9   Thumb Code    22  fifo.o(.text)
    FIFO_Write                               0x080005bf   Thumb Code   106  fifo.o(.text)
    FIFO_Writes                              0x08000629   Thumb Code   128  fifo.o(.text)
    FIFO_Read                                0x080006a9   Thumb Code   124  fifo.o(.text)
    FIFO_ReadN                               0x08000725   Thumb Code   172  fifo.o(.text)
    PrintMonitorInit                         0x080007d9   Thumb Code    18  print_monitor.o(.text)
    Task_uartMonitor                         0x080007eb   Thumb Code    40  print_monitor.o(.text)
    PrintMonitor_PostdMsg                    0x08000813   Thumb Code   118  print_monitor.o(.text)
    EEP_ReadData                             0x0800088d   Thumb Code   138  eeprom.o(.text)
    EEP_WriteData                            0x08000917   Thumb Code   214  eeprom.o(.text)
    ADC_init                                 0x08000c51   Thumb Code    98  temperatureinside.o(.text)
    HAL_ADC_ConvCpltCallback                 0x08000cb3   Thumb Code     8  temperatureinside.o(.text)
    HAL_ADC_MspInit                          0x08000cbb   Thumb Code    98  temperatureinside.o(.text)
    TemperatureInside_GetADCHuman            0x08000d3f   Thumb Code    80  temperatureinside.o(.text)
    UART_sendContinueIT                      0x08000e59   Thumb Code    82  bsp_uartcomm.o(.text)
    UART_sendData                            0x08000eab   Thumb Code   164  bsp_uartcomm.o(.text)
    fputc                                    0x08000f4f   Thumb Code    54  bsp_uartcomm.o(.text)
    com_registHandler                        0x08000f85   Thumb Code    58  bsp_uartcomm.o(.text)
    UART_getByte                             0x08000fbf   Thumb Code    40  bsp_uartcomm.o(.text)
    UART_getData                             0x08000fe7   Thumb Code    52  bsp_uartcomm.o(.text)
    UART_sendContinueDMA                     0x0800101b   Thumb Code   206  bsp_uartcomm.o(.text)
    UART_init                                0x080010e9   Thumb Code     8  bsp_uartcomm.o(.text)
    GPIO_ReInitGPIO                          0x08001143   Thumb Code    56  bsp_gpio.o(.text)
    GPIO_getPinStatus                        0x080011e9   Thumb Code    34  bsp_gpio.o(.text)
    GPIO_isPinActive                         0x0800120b   Thumb Code    62  bsp_gpio.o(.text)
    GPIO_getPinName                          0x08001249   Thumb Code    30  bsp_gpio.o(.text)
    GPIO_printIdexAndName                    0x08001267   Thumb Code    40  bsp_gpio.o(.text)
    GPIO_setPinStatus                        0x0800128f   Thumb Code    78  bsp_gpio.o(.text)
    GPIO_Init                                0x080012dd   Thumb Code    16  bsp_gpio.o(.text)
    UART1_init                               0x08001329   Thumb Code    84  bsp_usart1.o(.text)
    HAL_UART_TxCpltCallback                  0x080013c5   Thumb Code    44  bsp_usart1.o(.text)
    UART_RxCpltCallback                      0x080013f1   Thumb Code    40  bsp_usart1.o(.text)
    i2c_int                                  0x0800145d   Thumb Code     8  bsp_i2c.o(.text)
    HAL_I2C_EV_IRQHandler                    0x08001465   Thumb Code   144  bsp_i2c.o(.text)
    i2c_write_bytes                          0x080014f5   Thumb Code   102  bsp_i2c.o(.text)
    DemoAppInit                              0x08001569   Thumb Code     2  initcall.o(.text)
    DemoAppInitStart                         0x0800156b   Thumb Code     2  initcall.o(.text)
    DemoAppInitEnd                           0x0800156d   Thumb Code     2  initcall.o(.text)
    AppCallInit                              0x0800156f   Thumb Code    22  initcall.o(.text)
    PWM_ReqRGBMode                           0x080016b1   Thumb Code    76  pwm.o(.text)
    PWM_SetDuty                              0x080016fd   Thumb Code   102  pwm.o(.text)
    PWM_DutyChange                           0x08001775   Thumb Code   174  pwm.o(.text)
    TIM1_UP_IRQHandler                       0x080018e5   Thumb Code    46  pwm.o(.text)
    i2cs0_Stop                               0x08001b51   Thumb Code    16  bsp_i2cs0.o(.text)
    i2cs0_set_address                        0x08001c07   Thumb Code     2  bsp_i2cs0.o(.text)
    i2cs0_init                               0x08001cef   Thumb Code    12  bsp_i2cs0.o(.text)
    i2cs0_read_bytes                         0x08001cfb   Thumb Code   196  bsp_i2cs0.o(.text)
    i2cs0_write_bytes                        0x08001dbf   Thumb Code   202  bsp_i2cs0.o(.text)
    Delay_NoSchedue                          0x08001e9d   Thumb Code    12  bsp_i2ccomm.o(.text)
    I2C_Tx                                   0x08001ea9   Thumb Code    72  bsp_i2ccomm.o(.text)
    I2C_Rx                                   0x08001ef1   Thumb Code    72  bsp_i2ccomm.o(.text)
    i2cs1_Stop                               0x08001f95   Thumb Code    16  bsp_i2cs1.o(.text)
    i2cs1_set_address                        0x0800204b   Thumb Code     2  bsp_i2cs1.o(.text)
    i2cs1_init                               0x08002133   Thumb Code    12  bsp_i2cs1.o(.text)
    i2cs1_read_bytes                         0x0800213f   Thumb Code   196  bsp_i2cs1.o(.text)
    i2cs1_write_bytes                        0x08002203   Thumb Code   202  bsp_i2cs1.o(.text)
    KeyPressedDurationMs                     0x080022e1   Thumb Code   116  bsp_key.o(.text)
    shellWriteString                         0x0800244d   Thumb Code    40  shell.o(.text)
    shellToHex                               0x080024c9   Thumb Code    56  shell.o(.text)
    shellCheckPermission                     0x0800254d   Thumb Code    54  shell.o(.text)
    shellSeekCommand                         0x08002583   Thumb Code   122  shell.o(.text)
    shellInit                                0x08002685   Thumb Code   144  shell.o(.text)
    shellGetCurrent                          0x08002715   Thumb Code    48  shell.o(.text)
    shellPrint                               0x080027a3   Thumb Code    50  shell.o(.text)
    shellToDec                               0x080027d5   Thumb Code    86  shell.o(.text)
    shellListItem                            0x080028cd   Thumb Code   240  shell.o(.text)
    shellListCommand                         0x080029bd   Thumb Code    90  shell.o(.text)
    shellListVar                             0x08002a17   Thumb Code    84  shell.o(.text)
    shellListUser                            0x08002a6b   Thumb Code    84  shell.o(.text)
    shellListKey                             0x08002abf   Thumb Code    84  shell.o(.text)
    shellListAll                             0x08002b13   Thumb Code    12  shell.o(.text)
    shellDeleteCommandLine                   0x08002b1f   Thumb Code    28  shell.o(.text)
    shellClearCommandLine                    0x08002b3b   Thumb Code    40  shell.o(.text)
    shellInsertByte                          0x08002b63   Thumb Code   222  shell.o(.text)
    shellDeleteByte                          0x08002c41   Thumb Code   232  shell.o(.text)
    shellGetVarValue                         0x08002e1f   Thumb Code    84  shell.o(.text)
    shellSetVarValue                         0x08002f13   Thumb Code   140  shell.o(.text)
    shellSetVar                              0x08002f9f   Thumb Code   106  shell.o(.text)
    shellRunCommand                          0x08003073   Thumb Code   174  shell.o(.text)
    shellNormalInput                         0x080032c9   Thumb Code    28  shell.o(.text)
    shellExec                                0x080032e5   Thumb Code   110  shell.o(.text)
    shellUp                                  0x08003353   Thumb Code    14  shell.o(.text)
    shellCtrlC                               0x08003361   Thumb Code    22  shell.o(.text)
    shellDown                                0x08003377   Thumb Code    16  shell.o(.text)
    shellRight                               0x08003387   Thumb Code    30  shell.o(.text)
    shellLeft                                0x080033a5   Thumb Code    26  shell.o(.text)
    shellTab                                 0x080033bf   Thumb Code   378  shell.o(.text)
    shellBackspace                           0x08003539   Thumb Code    14  shell.o(.text)
    shellDelete                              0x08003547   Thumb Code    16  shell.o(.text)
    shellEnter                               0x08003557   Thumb Code    20  shell.o(.text)
    shellHelp                                0x0800356b   Thumb Code   118  shell.o(.text)
    shellHandler                             0x080035e1   Thumb Code   244  shell.o(.text)
    shellTask                                0x080036d5   Thumb Code    46  shell.o(.text)
    shellUsers                               0x08003703   Thumb Code    18  shell.o(.text)
    shellCmds                                0x08003715   Thumb Code    36  shell.o(.text)
    shellVars                                0x08003739   Thumb Code    18  shell.o(.text)
    shellKeys                                0x0800374b   Thumb Code    18  shell.o(.text)
    shellClear                               0x0800375d   Thumb Code    22  shell.o(.text)
    shellRun                                 0x08003773   Thumb Code    86  shell.o(.text)
    shellExtParsePara                        0x080039f7   Thumb Code    86  shell_ext.o(.text)
    shellExtRun                              0x08003a4d   Thumb Code   202  shell_ext.o(.text)
    userShellWrite                           0x08003b19   Thumb Code    14  shell_port.o(.text)
    userShellRead                            0x08003b27   Thumb Code    22  shell_port.o(.text)
    userShellInit                            0x08003b3d   Thumb Code    28  shell_port.o(.text)
    SystemClock_Config                       0x08003f89   Thumb Code   130  main.o(.text)
    main                                     0x0800400b   Thumb Code   210  main.o(.text)
    PrintTaskStackHead                       0x080040dd   Thumb Code   344  main.o(.text)
    vApplicationIdleHook                     0x08004235   Thumb Code    26  main.o(.text)
    vPortSetupTimerInterrupt                 0x0800424f   Thumb Code     2  main.o(.text)
    Reboot                                   0x08004251   Thumb Code     8  main.o(.text)
    HAL_MspInit                              0x080043b5   Thumb Code    58  stm32f1xx_hal_msp.o(.text)
    HAL_I2C_MspInit                          0x080043ef   Thumb Code   138  stm32f1xx_hal_msp.o(.text)
    HAL_I2C_MspDeInit                        0x08004479   Thumb Code    60  stm32f1xx_hal_msp.o(.text)
    HAL_UART_MspInit                         0x080044b5   Thumb Code   186  stm32f1xx_hal_msp.o(.text)
    HAL_UART_MspDeInit                       0x0800456f   Thumb Code    48  stm32f1xx_hal_msp.o(.text)
    NMI_Handler                              0x080045bd   Thumb Code     4  stm32f1xx_it.o(.text)
    MemManage_Handler                        0x080045c5   Thumb Code     4  stm32f1xx_it.o(.text)
    BusFault_Handler                         0x080045c9   Thumb Code     4  stm32f1xx_it.o(.text)
    UsageFault_Handler                       0x080045cd   Thumb Code     4  stm32f1xx_it.o(.text)
    DebugMon_Handler                         0x080045d1   Thumb Code     2  stm32f1xx_it.o(.text)
    SysTick_Handler                          0x080045d3   Thumb Code    20  stm32f1xx_it.o(.text)
    DMA1_Channel4_IRQHandler                 0x080045e7   Thumb Code    10  stm32f1xx_it.o(.text)
    DMA1_Channel6_IRQHandler                 0x080045f1   Thumb Code    10  stm32f1xx_it.o(.text)
    I2C1_EV_IRQHandler                       0x080045fb   Thumb Code    10  stm32f1xx_it.o(.text)
    DMA1_Channel1_IRQHandler                 0x08004605   Thumb Code    10  stm32f1xx_it.o(.text)
    I2C1_ER_IRQHandler                       0x0800460f   Thumb Code    10  stm32f1xx_it.o(.text)
    USART1_IRQHandler                        0x08004619   Thumb Code    16  stm32f1xx_it.o(.text)
    cm_backtrace_init                        0x0800463d   Thumb Code   102  cm_backtrace.o(.text)
    cm_backtrace_firmware_info               0x080046a3   Thumb Code    24  cm_backtrace.o(.text)
    cm_backtrace_call_stack                  0x080047b3   Thumb Code   276  cm_backtrace.o(.text)
    cm_backtrace_assert                      0x0800493d   Thumb Code   150  cm_backtrace.o(.text)
    HardFault_Handler_bt                     0x08004e01   Thumb Code   598  cm_backtrace.o(.text)
    HardFault_Handler                        0x080051f1   Thumb Code    12  cmb_fault.o(.text)
    Reset_Handler                            0x080051fd   Thumb Code     8  startup_stm32f103xe.o(.text)
    ADC1_2_IRQHandler                        0x08005217   Thumb Code     0  startup_stm32f103xe.o(.text)
    ADC3_IRQHandler                          0x08005217   Thumb Code     0  startup_stm32f103xe.o(.text)
    CAN1_RX1_IRQHandler                      0x08005217   Thumb Code     0  startup_stm32f103xe.o(.text)
    CAN1_SCE_IRQHandler                      0x08005217   Thumb Code     0  startup_stm32f103xe.o(.text)
    DMA1_Channel2_IRQHandler                 0x08005217   Thumb Code     0  startup_stm32f103xe.o(.text)
    DMA1_Channel3_IRQHandler                 0x08005217   Thumb Code     0  startup_stm32f103xe.o(.text)
    DMA1_Channel5_IRQHandler                 0x08005217   Thumb Code     0  startup_stm32f103xe.o(.text)
    DMA1_Channel7_IRQHandler                 0x08005217   Thumb Code     0  startup_stm32f103xe.o(.text)
    DMA2_Channel1_IRQHandler                 0x08005217   Thumb Code     0  startup_stm32f103xe.o(.text)
    DMA2_Channel2_IRQHandler                 0x08005217   Thumb Code     0  startup_stm32f103xe.o(.text)
    DMA2_Channel3_IRQHandler                 0x08005217   Thumb Code     0  startup_stm32f103xe.o(.text)
    DMA2_Channel4_5_IRQHandler               0x08005217   Thumb Code     0  startup_stm32f103xe.o(.text)
    EXTI0_IRQHandler                         0x08005217   Thumb Code     0  startup_stm32f103xe.o(.text)
    EXTI15_10_IRQHandler                     0x08005217   Thumb Code     0  startup_stm32f103xe.o(.text)
    EXTI1_IRQHandler                         0x08005217   Thumb Code     0  startup_stm32f103xe.o(.text)
    EXTI2_IRQHandler                         0x08005217   Thumb Code     0  startup_stm32f103xe.o(.text)
    EXTI3_IRQHandler                         0x08005217   Thumb Code     0  startup_stm32f103xe.o(.text)
    EXTI4_IRQHandler                         0x08005217   Thumb Code     0  startup_stm32f103xe.o(.text)
    EXTI9_5_IRQHandler                       0x08005217   Thumb Code     0  startup_stm32f103xe.o(.text)
    FLASH_IRQHandler                         0x08005217   Thumb Code     0  startup_stm32f103xe.o(.text)
    FSMC_IRQHandler                          0x08005217   Thumb Code     0  startup_stm32f103xe.o(.text)
    I2C2_ER_IRQHandler                       0x08005217   Thumb Code     0  startup_stm32f103xe.o(.text)
    I2C2_EV_IRQHandler                       0x08005217   Thumb Code     0  startup_stm32f103xe.o(.text)
    PVD_IRQHandler                           0x08005217   Thumb Code     0  startup_stm32f103xe.o(.text)
    RCC_IRQHandler                           0x08005217   Thumb Code     0  startup_stm32f103xe.o(.text)
    RTC_Alarm_IRQHandler                     0x08005217   Thumb Code     0  startup_stm32f103xe.o(.text)
    RTC_IRQHandler                           0x08005217   Thumb Code     0  startup_stm32f103xe.o(.text)
    SDIO_IRQHandler                          0x08005217   Thumb Code     0  startup_stm32f103xe.o(.text)
    SPI1_IRQHandler                          0x08005217   Thumb Code     0  startup_stm32f103xe.o(.text)
    SPI2_IRQHandler                          0x08005217   Thumb Code     0  startup_stm32f103xe.o(.text)
    SPI3_IRQHandler                          0x08005217   Thumb Code     0  startup_stm32f103xe.o(.text)
    TAMPER_IRQHandler                        0x08005217   Thumb Code     0  startup_stm32f103xe.o(.text)
    TIM1_BRK_IRQHandler                      0x08005217   Thumb Code     0  startup_stm32f103xe.o(.text)
    TIM1_CC_IRQHandler                       0x08005217   Thumb Code     0  startup_stm32f103xe.o(.text)
    TIM1_TRG_COM_IRQHandler                  0x08005217   Thumb Code     0  startup_stm32f103xe.o(.text)
    TIM2_IRQHandler                          0x08005217   Thumb Code     0  startup_stm32f103xe.o(.text)
    TIM3_IRQHandler                          0x08005217   Thumb Code     0  startup_stm32f103xe.o(.text)
    TIM4_IRQHandler                          0x08005217   Thumb Code     0  startup_stm32f103xe.o(.text)
    TIM5_IRQHandler                          0x08005217   Thumb Code     0  startup_stm32f103xe.o(.text)
    TIM6_IRQHandler                          0x08005217   Thumb Code     0  startup_stm32f103xe.o(.text)
    TIM7_IRQHandler                          0x08005217   Thumb Code     0  startup_stm32f103xe.o(.text)
    TIM8_BRK_IRQHandler                      0x08005217   Thumb Code     0  startup_stm32f103xe.o(.text)
    TIM8_CC_IRQHandler                       0x08005217   Thumb Code     0  startup_stm32f103xe.o(.text)
    TIM8_TRG_COM_IRQHandler                  0x08005217   Thumb Code     0  startup_stm32f103xe.o(.text)
    TIM8_UP_IRQHandler                       0x08005217   Thumb Code     0  startup_stm32f103xe.o(.text)
    UART4_IRQHandler                         0x08005217   Thumb Code     0  startup_stm32f103xe.o(.text)
    UART5_IRQHandler                         0x08005217   Thumb Code     0  startup_stm32f103xe.o(.text)
    USART2_IRQHandler                        0x08005217   Thumb Code     0  startup_stm32f103xe.o(.text)
    USART3_IRQHandler                        0x08005217   Thumb Code     0  startup_stm32f103xe.o(.text)
    USBWakeUp_IRQHandler                     0x08005217   Thumb Code     0  startup_stm32f103xe.o(.text)
    USB_HP_CAN1_TX_IRQHandler                0x08005217   Thumb Code     0  startup_stm32f103xe.o(.text)
    USB_LP_CAN1_RX0_IRQHandler               0x08005217   Thumb Code     0  startup_stm32f103xe.o(.text)
    WWDG_IRQHandler                          0x08005217   Thumb Code     0  startup_stm32f103xe.o(.text)
    SystemInit                               0x08005221   Thumb Code     2  system_stm32f1xx.o(.text)
    SystemCoreClockUpdate                    0x08005223   Thumb Code   142  system_stm32f1xx.o(.text)
    vListInitialise                          0x080052c5   Thumb Code    26  list.o(.text)
    vListInitialiseItem                      0x080052df   Thumb Code     6  list.o(.text)
    vListInsertEnd                           0x080052e5   Thumb Code    24  list.o(.text)
    vListInsert                              0x080052fd   Thumb Code    52  list.o(.text)
    uxListRemove                             0x08005331   Thumb Code    40  list.o(.text)
    xQueueGenericReset                       0x08005359   Thumb Code   214  queue.o(.text)
    xQueueGenericCreate                      0x08005459   Thumb Code   102  queue.o(.text)
    xQueueGenericSend                        0x080055d9   Thumb Code   420  queue.o(.text)
    xQueueCreateMutex                        0x0800579b   Thumb Code    38  queue.o(.text)
    xQueueGetMutexHolder                     0x080057c1   Thumb Code    52  queue.o(.text)
    xQueueGetMutexHolderFromISR              0x080057f5   Thumb Code    38  queue.o(.text)
    xQueueGiveMutexRecursive                 0x0800581b   Thumb Code    72  queue.o(.text)
    xQueueSemaphoreTake                      0x08005891   Thumb Code   434  queue.o(.text)
    xQueueTakeMutexRecursive                 0x08005a43   Thumb Code    78  queue.o(.text)
    xQueueCreateCountingSemaphore            0x08005a91   Thumb Code    60  queue.o(.text)
    xQueueGenericSendFromISR                 0x08005acd   Thumb Code   288  queue.o(.text)
    xQueueGiveFromISR                        0x08005bed   Thumb Code   260  queue.o(.text)
    xQueueReceive                            0x08005d21   Thumb Code   356  queue.o(.text)
    xQueuePeek                               0x08005e85   Thumb Code   362  queue.o(.text)
    xQueueReceiveFromISR                     0x08005fef   Thumb Code   238  queue.o(.text)
    xQueuePeekFromISR                        0x080060dd   Thumb Code   176  queue.o(.text)
    uxQueueMessagesWaiting                   0x0800618d   Thumb Code    46  queue.o(.text)
    uxQueueSpacesAvailable                   0x080061bb   Thumb Code    48  queue.o(.text)
    uxQueueMessagesWaitingFromISR            0x080061eb   Thumb Code    34  queue.o(.text)
    vQueueUnregisterQueue                    0x0800620d   Thumb Code    68  queue.o(.text)
    vQueueDelete                             0x08006251   Thumb Code    44  queue.o(.text)
    uxQueueGetQueueNumber                    0x0800627d   Thumb Code     6  queue.o(.text)
    vQueueSetQueueNumber                     0x08006283   Thumb Code     4  queue.o(.text)
    ucQueueGetQueueType                      0x08006287   Thumb Code     8  queue.o(.text)
    xQueueIsQueueEmptyFromISR                0x0800628f   Thumb Code    42  queue.o(.text)
    xQueueIsQueueFullFromISR                 0x080062b9   Thumb Code    46  queue.o(.text)
    vQueueAddToRegistry                      0x080062e7   Thumb Code    90  queue.o(.text)
    pcQueueGetName                           0x08006341   Thumb Code    64  queue.o(.text)
    vQueueWaitForMessageRestricted           0x08006381   Thumb Code    74  queue.o(.text)
    xTaskCreate                              0x080065c7   Thumb Code    96  tasks.o(.text)
    vTaskDelete                              0x08006661   Thumb Code   168  tasks.o(.text)
    xTaskIncrementTick                       0x08006709   Thumb Code   478  tasks.o(.text)
    xTaskResumeAll                           0x080068e7   Thumb Code   336  tasks.o(.text)
    vTaskSuspendAll                          0x08006ac3   Thumb Code    12  tasks.o(.text)
    xTaskDelayUntil                          0x08006acf   Thumb Code   202  tasks.o(.text)
    vTaskDelay                               0x08006b99   Thumb Code    82  tasks.o(.text)
    eTaskGetState                            0x08006beb   Thumb Code   198  tasks.o(.text)
    uxTaskPriorityGet                        0x08006cb1   Thumb Code    30  tasks.o(.text)
    uxTaskPriorityGetFromISR                 0x08006ccf   Thumb Code    62  tasks.o(.text)
    vTaskPrioritySet                         0x08006d0d   Thumb Code   292  tasks.o(.text)
    vTaskSwitchContext                       0x08006e31   Thumb Code   122  tasks.o(.text)
    vTaskSuspend                             0x08006eab   Thumb Code   190  tasks.o(.text)
    vTaskResume                              0x08006fb9   Thumb Code   224  tasks.o(.text)
    xTaskResumeFromISR                       0x08007099   Thumb Code   216  tasks.o(.text)
    vTaskStartScheduler                      0x080071d1   Thumb Code   124  tasks.o(.text)
    vTaskEndScheduler                        0x0800724d   Thumb Code    32  tasks.o(.text)
    xTaskGetTickCount                        0x0800726d   Thumb Code     6  tasks.o(.text)
    xTaskGetTickCountFromISR                 0x08007273   Thumb Code    16  tasks.o(.text)
    uxTaskGetNumberOfTasks                   0x08007283   Thumb Code     6  tasks.o(.text)
    pcTaskGetName                            0x08007289   Thumb Code    44  tasks.o(.text)
    vTaskGetInfo                             0x080072cb   Thumb Code   126  tasks.o(.text)
    uxTaskGetSystemState                     0x080073b3   Thumb Code   152  tasks.o(.text)
    xTaskCatchUpTicks                        0x0800744b   Thumb Code    64  tasks.o(.text)
    vTaskPlaceOnEventList                    0x0800748b   Thumb Code   142  tasks.o(.text)
    vTaskPlaceOnUnorderedEventList           0x08007519   Thumb Code   134  tasks.o(.text)
    vTaskPlaceOnEventListRestricted          0x0800759f   Thumb Code    94  tasks.o(.text)
    xTaskRemoveFromEventList                 0x080075fd   Thumb Code   262  tasks.o(.text)
    vTaskRemoveFromUnorderedEventList        0x08007703   Thumb Code   248  tasks.o(.text)
    vTaskSetTimeOutState                     0x080077fb   Thumb Code    50  tasks.o(.text)
    vTaskInternalSetTimeOutState             0x0800782d   Thumb Code    14  tasks.o(.text)
    xTaskCheckForTimeOut                     0x0800783b   Thumb Code   136  tasks.o(.text)
    vTaskMissedYield                         0x080078c3   Thumb Code     8  tasks.o(.text)
    uxTaskGetTaskNumber                      0x080078cb   Thumb Code    14  tasks.o(.text)
    vTaskSetTaskNumber                       0x080078d9   Thumb Code     8  tasks.o(.text)
    uxTaskGetStackHighWaterMark              0x080078e1   Thumb Code    34  tasks.o(.text)
    xTaskGetCurrentTaskHandle                0x08007903   Thumb Code     6  tasks.o(.text)
    xTaskGetSchedulerState                   0x08007909   Thumb Code    60  tasks.o(.text)
    xTaskPriorityInherit                     0x08007945   Thumb Code   202  tasks.o(.text)
    xTaskPriorityDisinherit                  0x08007a0f   Thumb Code   202  tasks.o(.text)
    vTaskPriorityDisinheritAfterTimeout      0x08007ad9   Thumb Code   246  tasks.o(.text)
    uxTaskResetEventItemValue                0x08007bcf   Thumb Code    24  tasks.o(.text)
    pvTaskIncrementMutexHeldCount            0x08007be7   Thumb Code    26  tasks.o(.text)
    ulTaskGenericNotifyTake                  0x08007c01   Thumb Code   160  tasks.o(.text)
    xTaskGenericNotifyWait                   0x08007ca1   Thumb Code   212  tasks.o(.text)
    xTaskGenericNotify                       0x08007d75   Thumb Code   440  tasks.o(.text)
    xTaskGenericNotifyFromISR                0x08007f2d   Thumb Code   548  tasks.o(.text)
    vTaskGenericNotifyGiveFromISR            0x08008151   Thumb Code   370  tasks.o(.text)
    xTaskGenericNotifyStateClear             0x080082c3   Thumb Code    90  tasks.o(.text)
    ulTaskGenericNotifyValueClear            0x0800831d   Thumb Code    58  tasks.o(.text)
    vTaskStackAddr                           0x08008357   Thumb Code     8  tasks.o(.text)
    vTaskStackSize                           0x0800835f   Thumb Code     8  tasks.o(.text)
    vTaskName                                0x08008367   Thumb Code     8  tasks.o(.text)
    xTimerCreateTimerTask                    0x080086d3   Thumb Code    64  timers.o(.text)
    xTimerCreate                             0x0800876b   Thumb Code   106  timers.o(.text)
    xTimerGenericCommand                     0x080087d5   Thumb Code   128  timers.o(.text)
    xTimerGetTimerDaemonTaskHandle           0x08008855   Thumb Code    42  timers.o(.text)
    xTimerGetPeriod                          0x0800887f   Thumb Code    32  timers.o(.text)
    vTimerSetReloadMode                      0x0800889f   Thumb Code    70  timers.o(.text)
    uxTimerGetReloadMode                     0x080088e5   Thumb Code    58  timers.o(.text)
    xTimerGetExpiryTime                      0x0800891f   Thumb Code    34  timers.o(.text)
    pcTimerGetName                           0x08008941   Thumb Code    32  timers.o(.text)
    xTimerIsTimerActive                      0x08008961   Thumb Code    58  timers.o(.text)
    pvTimerGetTimerID                        0x0800899b   Thumb Code    44  timers.o(.text)
    vTimerSetTimerID                         0x080089c7   Thumb Code    44  timers.o(.text)
    xTimerPendFunctionCallFromISR            0x080089f3   Thumb Code    48  timers.o(.text)
    xTimerPendFunctionCall                   0x08008a23   Thumb Code    76  timers.o(.text)
    uxTimerGetTimerNumber                    0x08008a6f   Thumb Code     6  timers.o(.text)
    vTimerSetTimerNumber                     0x08008a75   Thumb Code     4  timers.o(.text)
    pvPortMalloc                             0x08008b43   Thumb Code   338  heap_4.o(.text)
    vPortFree                                0x08008c95   Thumb Code   150  heap_4.o(.text)
    xPortGetFreeHeapSize                     0x08008d2b   Thumb Code     6  heap_4.o(.text)
    xPortGetMinimumEverFreeHeapSize          0x08008d31   Thumb Code     6  heap_4.o(.text)
    vPortInitialiseBlocks                    0x08008d37   Thumb Code     2  heap_4.o(.text)
    vPortGetHeapStats                        0x08008d39   Thumb Code   104  heap_4.o(.text)
    pxPortInitialiseStack                    0x08008dfd   Thumb Code    30  port.o(.text)
    xPortStartScheduler                      0x08008e1b   Thumb Code   228  port.o(.text)
    vPortEndScheduler                        0x08008eff   Thumb Code    42  port.o(.text)
    vPortEnterCritical                       0x08008f29   Thumb Code    78  port.o(.text)
    vPortExitCritical                        0x08008f77   Thumb Code    56  port.o(.text)
    xPortSysTickHandler                      0x08008faf   Thumb Code    48  port.o(.text)
    vPortValidateInterruptPriority           0x08008fdf   Thumb Code   108  port.o(.text)
    HAL_GPIO_Init                            0x08009065   Thumb Code   792  stm32f1xx_hal_gpio.o(.text)
    HAL_GPIO_DeInit                          0x0800937d   Thumb Code   312  stm32f1xx_hal_gpio.o(.text)
    HAL_GPIO_ReadPin                         0x080094b5   Thumb Code    16  stm32f1xx_hal_gpio.o(.text)
    HAL_GPIO_WritePin                        0x080094c5   Thumb Code    12  stm32f1xx_hal_gpio.o(.text)
    HAL_GPIO_TogglePin                       0x080094d1   Thumb Code    20  stm32f1xx_hal_gpio.o(.text)
    HAL_GPIO_LockPin                         0x080094e5   Thumb Code    46  stm32f1xx_hal_gpio.o(.text)
    HAL_GPIO_EXTI_Callback                   0x08009513   Thumb Code     2  stm32f1xx_hal_gpio.o(.text)
    HAL_GPIO_EXTI_IRQHandler                 0x08009515   Thumb Code    28  stm32f1xx_hal_gpio.o(.text)
    HAL_DMA_Init                             0x08009559   Thumb Code   132  stm32f1xx_hal_dma.o(.text)
    HAL_DMA_DeInit                           0x080095dd   Thumb Code   132  stm32f1xx_hal_dma.o(.text)
    HAL_DMA_Start                            0x0800968d   Thumb Code   114  stm32f1xx_hal_dma.o(.text)
    HAL_DMA_Start_IT                         0x080096ff   Thumb Code   156  stm32f1xx_hal_dma.o(.text)
    HAL_DMA_Abort                            0x0800979b   Thumb Code    86  stm32f1xx_hal_dma.o(.text)
    HAL_DMA_Abort_IT                         0x080097f1   Thumb Code   422  stm32f1xx_hal_dma.o(.text)
    HAL_DMA_PollForTransfer                  0x08009997   Thumb Code  1616  stm32f1xx_hal_dma.o(.text)
    HAL_DMA_IRQHandler                       0x08009fe7   Thumb Code   920  stm32f1xx_hal_dma.o(.text)
    HAL_DMA_RegisterCallback                 0x0800a37f   Thumb Code    90  stm32f1xx_hal_dma.o(.text)
    HAL_DMA_UnRegisterCallback               0x0800a3d9   Thumb Code   106  stm32f1xx_hal_dma.o(.text)
    HAL_DMA_GetState                         0x0800a443   Thumb Code     8  stm32f1xx_hal_dma.o(.text)
    HAL_DMA_GetError                         0x0800a44b   Thumb Code     6  stm32f1xx_hal_dma.o(.text)
    TIM_Base_SetConfig                       0x0800a459   Thumb Code   134  stm32f1xx_hal_tim.o(.text)
    HAL_TIM_Base_MspInit                     0x0800a4df   Thumb Code     2  stm32f1xx_hal_tim.o(.text)
    HAL_TIM_Base_Init                        0x0800a4e1   Thumb Code   102  stm32f1xx_hal_tim.o(.text)
    HAL_TIM_Base_MspDeInit                   0x0800a547   Thumb Code     2  stm32f1xx_hal_tim.o(.text)
    HAL_TIM_Base_DeInit                      0x0800a549   Thumb Code   120  stm32f1xx_hal_tim.o(.text)
    HAL_TIM_Base_Start                       0x0800a5c1   Thumb Code   110  stm32f1xx_hal_tim.o(.text)
    HAL_TIM_Base_Stop                        0x0800a62f   Thumb Code    50  stm32f1xx_hal_tim.o(.text)
    HAL_TIM_Base_Start_IT                    0x0800a661   Thumb Code   122  stm32f1xx_hal_tim.o(.text)
    HAL_TIM_Base_Stop_IT                     0x0800a6db   Thumb Code    62  stm32f1xx_hal_tim.o(.text)
    HAL_TIM_ErrorCallback                    0x0800a719   Thumb Code     2  stm32f1xx_hal_tim.o(.text)
    TIM_DMAError                             0x0800a71b   Thumb Code    94  stm32f1xx_hal_tim.o(.text)
    HAL_TIM_PeriodElapsedHalfCpltCallback    0x0800a779   Thumb Code     2  stm32f1xx_hal_tim.o(.text)
    HAL_TIM_PeriodElapsedCallback            0x0800a789   Thumb Code     2  stm32f1xx_hal_tim.o(.text)
    HAL_TIM_Base_Start_DMA                   0x0800a7a5   Thumb Code   224  stm32f1xx_hal_tim.o(.text)
    HAL_TIM_Base_Stop_DMA                    0x0800a885   Thumb Code    70  stm32f1xx_hal_tim.o(.text)
    HAL_TIM_OC_MspInit                       0x0800a8cb   Thumb Code     2  stm32f1xx_hal_tim.o(.text)
    HAL_TIM_OC_Init                          0x0800a8cd   Thumb Code   102  stm32f1xx_hal_tim.o(.text)
    HAL_TIM_OC_MspDeInit                     0x0800a933   Thumb Code     2  stm32f1xx_hal_tim.o(.text)
    HAL_TIM_OC_DeInit                        0x0800a935   Thumb Code   120  stm32f1xx_hal_tim.o(.text)
    TIM_CCxChannelCmd                        0x0800a9ad   Thumb Code    34  stm32f1xx_hal_tim.o(.text)
    HAL_TIM_OC_Start                         0x0800a9cf   Thumb Code   222  stm32f1xx_hal_tim.o(.text)
    HAL_TIM_OC_Stop                          0x0800aaad   Thumb Code   160  stm32f1xx_hal_tim.o(.text)
    HAL_TIM_OC_Start_IT                      0x0800ab4d   Thumb Code   304  stm32f1xx_hal_tim.o(.text)
    HAL_TIM_OC_Stop_IT                       0x0800ac7d   Thumb Code   244  stm32f1xx_hal_tim.o(.text)
    HAL_TIM_PWM_PulseFinishedHalfCpltCallback 0x0800ad71   Thumb Code     2  stm32f1xx_hal_tim.o(.text)
    TIM_DMADelayPulseHalfCplt                0x0800ad73   Thumb Code    64  stm32f1xx_hal_tim.o(.text)
    HAL_TIM_PWM_PulseFinishedCallback        0x0800adb3   Thumb Code     2  stm32f1xx_hal_tim.o(.text)
    HAL_TIM_OC_Start_DMA                     0x0800ae31   Thumb Code   548  stm32f1xx_hal_tim.o(.text)
    HAL_TIM_OC_Stop_DMA                      0x0800b055   Thumb Code   268  stm32f1xx_hal_tim.o(.text)
    HAL_TIM_PWM_MspInit                      0x0800b161   Thumb Code     2  stm32f1xx_hal_tim.o(.text)
    HAL_TIM_PWM_Init                         0x0800b163   Thumb Code   102  stm32f1xx_hal_tim.o(.text)
    HAL_TIM_PWM_MspDeInit                    0x0800b1c9   Thumb Code     2  stm32f1xx_hal_tim.o(.text)
    HAL_TIM_PWM_DeInit                       0x0800b1cb   Thumb Code   120  stm32f1xx_hal_tim.o(.text)
    HAL_TIM_PWM_Start                        0x0800b243   Thumb Code   248  stm32f1xx_hal_tim.o(.text)
    HAL_TIM_PWM_Stop                         0x0800b33b   Thumb Code   160  stm32f1xx_hal_tim.o(.text)
    HAL_TIM_PWM_Start_IT                     0x0800b3db   Thumb Code   304  stm32f1xx_hal_tim.o(.text)
    HAL_TIM_PWM_Stop_IT                      0x0800b50b   Thumb Code   244  stm32f1xx_hal_tim.o(.text)
    HAL_TIM_PWM_Start_DMA                    0x0800b5ff   Thumb Code   568  stm32f1xx_hal_tim.o(.text)
    HAL_TIM_PWM_Stop_DMA                     0x0800b837   Thumb Code   268  stm32f1xx_hal_tim.o(.text)
    HAL_TIM_IC_MspInit                       0x0800b943   Thumb Code     2  stm32f1xx_hal_tim.o(.text)
    HAL_TIM_IC_Init                          0x0800b945   Thumb Code   102  stm32f1xx_hal_tim.o(.text)
    HAL_TIM_IC_MspDeInit                     0x0800b9ab   Thumb Code     2  stm32f1xx_hal_tim.o(.text)
    HAL_TIM_IC_DeInit                        0x0800b9ad   Thumb Code   120  stm32f1xx_hal_tim.o(.text)
    HAL_TIM_IC_Start                         0x0800ba25   Thumb Code   302  stm32f1xx_hal_tim.o(.text)
    HAL_TIM_IC_Stop                          0x0800bb53   Thumb Code   138  stm32f1xx_hal_tim.o(.text)
    HAL_TIM_IC_Start_IT                      0x0800bbdd   Thumb Code   356  stm32f1xx_hal_tim.o(.text)
    HAL_TIM_IC_Stop_IT                       0x0800bd41   Thumb Code   222  stm32f1xx_hal_tim.o(.text)
    HAL_TIM_IC_CaptureHalfCpltCallback       0x0800be1f   Thumb Code     2  stm32f1xx_hal_tim.o(.text)
    TIM_DMACaptureHalfCplt                   0x0800be21   Thumb Code    64  stm32f1xx_hal_tim.o(.text)
    HAL_TIM_IC_CaptureCallback               0x0800be61   Thumb Code     2  stm32f1xx_hal_tim.o(.text)
    TIM_DMACaptureCplt                       0x0800be63   Thumb Code   122  stm32f1xx_hal_tim.o(.text)
    HAL_TIM_IC_Start_DMA                     0x0800bedd   Thumb Code   588  stm32f1xx_hal_tim.o(.text)
    HAL_TIM_IC_Stop_DMA                      0x0800c129   Thumb Code   244  stm32f1xx_hal_tim.o(.text)
    HAL_TIM_OnePulse_MspInit                 0x0800c21d   Thumb Code     2  stm32f1xx_hal_tim.o(.text)
    HAL_TIM_OnePulse_Init                    0x0800c21f   Thumb Code   102  stm32f1xx_hal_tim.o(.text)
    HAL_TIM_OnePulse_MspDeInit               0x0800c285   Thumb Code     2  stm32f1xx_hal_tim.o(.text)
    HAL_TIM_OnePulse_DeInit                  0x0800c287   Thumb Code    96  stm32f1xx_hal_tim.o(.text)
    HAL_TIM_OnePulse_Start                   0x0800c2e7   Thumb Code   132  stm32f1xx_hal_tim.o(.text)
    HAL_TIM_OnePulse_Stop                    0x0800c36b   Thumb Code   178  stm32f1xx_hal_tim.o(.text)
    HAL_TIM_OnePulse_Start_IT                0x0800c41d   Thumb Code   156  stm32f1xx_hal_tim.o(.text)
    HAL_TIM_OnePulse_Stop_IT                 0x0800c4b9   Thumb Code   176  stm32f1xx_hal_tim.o(.text)
    HAL_TIM_Encoder_MspInit                  0x0800c569   Thumb Code     2  stm32f1xx_hal_tim.o(.text)
    HAL_TIM_Encoder_Init                     0x0800c56b   Thumb Code   196  stm32f1xx_hal_tim.o(.text)
    HAL_TIM_Encoder_MspDeInit                0x0800c62f   Thumb Code     2  stm32f1xx_hal_tim.o(.text)
    HAL_TIM_Encoder_DeInit                   0x0800c631   Thumb Code    96  stm32f1xx_hal_tim.o(.text)
    HAL_TIM_Encoder_Start                    0x0800c691   Thumb Code   204  stm32f1xx_hal_tim.o(.text)
    HAL_TIM_Encoder_Stop                     0x0800c75d   Thumb Code   214  stm32f1xx_hal_tim.o(.text)
    HAL_TIM_Encoder_Start_IT                 0x0800c833   Thumb Code   260  stm32f1xx_hal_tim.o(.text)
    HAL_TIM_Encoder_Stop_IT                  0x0800c937   Thumb Code   256  stm32f1xx_hal_tim.o(.text)
    HAL_TIM_Encoder_Start_DMA                0x0800ca37   Thumb Code   560  stm32f1xx_hal_tim.o(.text)
    HAL_TIM_Encoder_Stop_DMA                 0x0800cc67   Thumb Code   280  stm32f1xx_hal_tim.o(.text)
    HAL_TIM_TriggerCallback                  0x0800cd7f   Thumb Code     2  stm32f1xx_hal_tim.o(.text)
    HAL_TIM_OC_DelayElapsedCallback          0x0800cd81   Thumb Code     2  stm32f1xx_hal_tim.o(.text)
    HAL_TIM_IRQHandler                       0x0800cd83   Thumb Code   410  stm32f1xx_hal_tim.o(.text)
    TIM_OC2_SetConfig                        0x0800cfd7   Thumb Code   114  stm32f1xx_hal_tim.o(.text)
    HAL_TIM_OC_ConfigChannel                 0x0800d0b1   Thumb Code   112  stm32f1xx_hal_tim.o(.text)
    TIM_TI1_SetConfig                        0x0800d1cf   Thumb Code   102  stm32f1xx_hal_tim.o(.text)
    HAL_TIM_IC_ConfigChannel                 0x0800d235   Thumb Code   222  stm32f1xx_hal_tim.o(.text)
    HAL_TIM_PWM_ConfigChannel                0x0800d313   Thumb Code   282  stm32f1xx_hal_tim.o(.text)
    HAL_TIM_OnePulse_ConfigChannel           0x0800d42d   Thumb Code   310  stm32f1xx_hal_tim.o(.text)
    HAL_TIM_TriggerHalfCpltCallback          0x0800d563   Thumb Code     2  stm32f1xx_hal_tim.o(.text)
    HAL_TIM_DMABurst_MultiWriteStart         0x0800d58d   Thumb Code   438  stm32f1xx_hal_tim.o(.text)
    HAL_TIM_DMABurst_WriteStart              0x0800d743   Thumb Code    42  stm32f1xx_hal_tim.o(.text)
    HAL_TIM_DMABurst_WriteStop               0x0800d76d   Thumb Code   140  stm32f1xx_hal_tim.o(.text)
    HAL_TIM_DMABurst_MultiReadStart          0x0800d7f9   Thumb Code   438  stm32f1xx_hal_tim.o(.text)
    HAL_TIM_DMABurst_ReadStart               0x0800d9af   Thumb Code    86  stm32f1xx_hal_tim.o(.text)
    HAL_TIM_DMABurst_ReadStop                0x0800da05   Thumb Code   140  stm32f1xx_hal_tim.o(.text)
    HAL_TIM_GenerateEvent                    0x0800da91   Thumb Code    54  stm32f1xx_hal_tim.o(.text)
    TIM_ETR_SetConfig                        0x0800dac7   Thumb Code    22  stm32f1xx_hal_tim.o(.text)
    HAL_TIM_ConfigOCrefClear                 0x0800dadd   Thumb Code   278  stm32f1xx_hal_tim.o(.text)
    HAL_TIM_ConfigClockSource                0x0800dc53   Thumb Code   268  stm32f1xx_hal_tim.o(.text)
    HAL_TIM_ConfigTI1Input                   0x0800dd5f   Thumb Code    22  stm32f1xx_hal_tim.o(.text)
    HAL_TIM_SlaveConfigSynchro               0x0800de27   Thumb Code   108  stm32f1xx_hal_tim.o(.text)
    HAL_TIM_SlaveConfigSynchro_IT            0x0800de93   Thumb Code   108  stm32f1xx_hal_tim.o(.text)
    HAL_TIM_ReadCapturedValue                0x0800deff   Thumb Code    50  stm32f1xx_hal_tim.o(.text)
    HAL_TIM_Base_GetState                    0x0800df31   Thumb Code     8  stm32f1xx_hal_tim.o(.text)
    HAL_TIM_OC_GetState                      0x0800df39   Thumb Code     8  stm32f1xx_hal_tim.o(.text)
    HAL_TIM_PWM_GetState                     0x0800df41   Thumb Code     8  stm32f1xx_hal_tim.o(.text)
    HAL_TIM_IC_GetState                      0x0800df49   Thumb Code     8  stm32f1xx_hal_tim.o(.text)
    HAL_TIM_OnePulse_GetState                0x0800df51   Thumb Code     8  stm32f1xx_hal_tim.o(.text)
    HAL_TIM_Encoder_GetState                 0x0800df59   Thumb Code     8  stm32f1xx_hal_tim.o(.text)
    HAL_TIM_GetActiveChannel                 0x0800df61   Thumb Code     6  stm32f1xx_hal_tim.o(.text)
    HAL_TIM_GetChannelState                  0x0800df67   Thumb Code    38  stm32f1xx_hal_tim.o(.text)
    HAL_TIM_DMABurstState                    0x0800df8d   Thumb Code     8  stm32f1xx_hal_tim.o(.text)
    HAL_TIMEx_HallSensor_MspInit             0x0800df95   Thumb Code     2  stm32f1xx_hal_tim_ex.o(.text)
    HAL_TIMEx_HallSensor_Init                0x0800df97   Thumb Code   234  stm32f1xx_hal_tim_ex.o(.text)
    HAL_TIMEx_HallSensor_MspDeInit           0x0800e081   Thumb Code     2  stm32f1xx_hal_tim_ex.o(.text)
    HAL_TIMEx_HallSensor_DeInit              0x0800e083   Thumb Code    96  stm32f1xx_hal_tim_ex.o(.text)
    HAL_TIMEx_HallSensor_Start               0x0800e0e3   Thumb Code   172  stm32f1xx_hal_tim_ex.o(.text)
    HAL_TIMEx_HallSensor_Stop                0x0800e18f   Thumb Code    78  stm32f1xx_hal_tim_ex.o(.text)
    HAL_TIMEx_HallSensor_Start_IT            0x0800e1dd   Thumb Code   184  stm32f1xx_hal_tim_ex.o(.text)
    HAL_TIMEx_HallSensor_Stop_IT             0x0800e295   Thumb Code    90  stm32f1xx_hal_tim_ex.o(.text)
    HAL_TIMEx_HallSensor_Start_DMA           0x0800e2ef   Thumb Code   224  stm32f1xx_hal_tim_ex.o(.text)
    HAL_TIMEx_HallSensor_Stop_DMA            0x0800e3cf   Thumb Code    84  stm32f1xx_hal_tim_ex.o(.text)
    HAL_TIMEx_OCN_Start                      0x0800e445   Thumb Code   198  stm32f1xx_hal_tim_ex.o(.text)
    HAL_TIMEx_OCN_Stop                       0x0800e50b   Thumb Code   170  stm32f1xx_hal_tim_ex.o(.text)
    HAL_TIMEx_OCN_Start_IT                   0x0800e5b5   Thumb Code   278  stm32f1xx_hal_tim_ex.o(.text)
    HAL_TIMEx_OCN_Stop_IT                    0x0800e6cb   Thumb Code   230  stm32f1xx_hal_tim_ex.o(.text)
    HAL_TIMEx_OCN_Start_DMA                  0x0800e85d   Thumb Code   448  stm32f1xx_hal_tim_ex.o(.text)
    HAL_TIMEx_OCN_Stop_DMA                   0x0800ea1d   Thumb Code   252  stm32f1xx_hal_tim_ex.o(.text)
    HAL_TIMEx_PWMN_Start                     0x0800eb19   Thumb Code   198  stm32f1xx_hal_tim_ex.o(.text)
    HAL_TIMEx_PWMN_Stop                      0x0800ebdf   Thumb Code   136  stm32f1xx_hal_tim_ex.o(.text)
    HAL_TIMEx_PWMN_Start_IT                  0x0800ec67   Thumb Code   278  stm32f1xx_hal_tim_ex.o(.text)
    HAL_TIMEx_PWMN_Stop_IT                   0x0800ed7d   Thumb Code   230  stm32f1xx_hal_tim_ex.o(.text)
    HAL_TIMEx_PWMN_Start_DMA                 0x0800ee63   Thumb Code   480  stm32f1xx_hal_tim_ex.o(.text)
    HAL_TIMEx_PWMN_Stop_DMA                  0x0800f043   Thumb Code   220  stm32f1xx_hal_tim_ex.o(.text)
    HAL_TIMEx_OnePulseN_Start                0x0800f11f   Thumb Code   118  stm32f1xx_hal_tim_ex.o(.text)
    HAL_TIMEx_OnePulseN_Stop                 0x0800f195   Thumb Code   138  stm32f1xx_hal_tim_ex.o(.text)
    HAL_TIMEx_OnePulseN_Start_IT             0x0800f21f   Thumb Code   142  stm32f1xx_hal_tim_ex.o(.text)
    HAL_TIMEx_OnePulseN_Stop_IT              0x0800f2ad   Thumb Code   162  stm32f1xx_hal_tim_ex.o(.text)
    HAL_TIMEx_ConfigCommutEvent              0x0800f34f   Thumb Code   168  stm32f1xx_hal_tim_ex.o(.text)
    HAL_TIMEx_ConfigCommutEvent_IT           0x0800f3f7   Thumb Code   134  stm32f1xx_hal_tim_ex.o(.text)
    HAL_TIMEx_CommutHalfCpltCallback         0x0800f47d   Thumb Code     2  stm32f1xx_hal_tim_ex.o(.text)
    TIMEx_DMACommutationHalfCplt             0x0800f47f   Thumb Code    20  stm32f1xx_hal_tim_ex.o(.text)
    HAL_TIMEx_CommutCallback                 0x0800f493   Thumb Code     2  stm32f1xx_hal_tim_ex.o(.text)
    TIMEx_DMACommutationCplt                 0x0800f495   Thumb Code    20  stm32f1xx_hal_tim_ex.o(.text)
    HAL_TIMEx_ConfigCommutEvent_DMA          0x0800f4a9   Thumb Code   156  stm32f1xx_hal_tim_ex.o(.text)
    HAL_TIMEx_MasterConfigSynchronization    0x0800f545   Thumb Code   134  stm32f1xx_hal_tim_ex.o(.text)
    HAL_TIMEx_ConfigBreakDeadTime            0x0800f5cb   Thumb Code   116  stm32f1xx_hal_tim_ex.o(.text)
    HAL_TIMEx_RemapConfig                    0x0800f63f   Thumb Code     6  stm32f1xx_hal_tim_ex.o(.text)
    HAL_TIMEx_BreakCallback                  0x0800f645   Thumb Code     2  stm32f1xx_hal_tim_ex.o(.text)
    HAL_TIMEx_HallSensor_GetState            0x0800f647   Thumb Code     8  stm32f1xx_hal_tim_ex.o(.text)
    HAL_TIMEx_GetChannelNState               0x0800f64f   Thumb Code    38  stm32f1xx_hal_tim_ex.o(.text)
    HAL_UART_Init                            0x0800f787   Thumb Code   118  stm32f1xx_hal_uart.o(.text)
    HAL_HalfDuplex_Init                      0x0800f7fd   Thumb Code   122  stm32f1xx_hal_uart.o(.text)
    HAL_LIN_Init                             0x0800f877   Thumb Code   146  stm32f1xx_hal_uart.o(.text)
    HAL_MultiProcessor_Init                  0x0800f909   Thumb Code   158  stm32f1xx_hal_uart.o(.text)
    HAL_UART_DeInit                          0x0800f9a9   Thumb Code    62  stm32f1xx_hal_uart.o(.text)
    HAL_UART_Transmit                        0x0800fa79   Thumb Code   182  stm32f1xx_hal_uart.o(.text)
    HAL_UART_Receive                         0x0800fb2f   Thumb Code   188  stm32f1xx_hal_uart.o(.text)
    HAL_UART_Transmit_IT                     0x0800fbeb   Thumb Code    56  stm32f1xx_hal_uart.o(.text)
    UART_Start_Receive_IT                    0x0800fc23   Thumb Code    64  stm32f1xx_hal_uart.o(.text)
    HAL_UART_Receive_IT                      0x0800fc63   Thumb Code    44  stm32f1xx_hal_uart.o(.text)
    HAL_UART_ErrorCallback                   0x0800fc8f   Thumb Code     2  stm32f1xx_hal_uart.o(.text)
    HAL_UART_TxHalfCpltCallback              0x0800fd73   Thumb Code     2  stm32f1xx_hal_uart.o(.text)
    HAL_UART_Transmit_DMA                    0x0800fddd   Thumb Code   128  stm32f1xx_hal_uart.o(.text)
    HAL_UART_RxHalfCpltCallback              0x0800fe5d   Thumb Code     2  stm32f1xx_hal_uart.o(.text)
    HAL_UARTEx_RxEventCallback               0x0800fe5f   Thumb Code     2  stm32f1xx_hal_uart.o(.text)
    HAL_UART_RxCpltCallback                  0x0800fe85   Thumb Code     2  stm32f1xx_hal_uart.o(.text)
    UART_Start_Receive_DMA                   0x0800ff3b   Thumb Code   186  stm32f1xx_hal_uart.o(.text)
    HAL_UART_Receive_DMA                     0x0800fff5   Thumb Code    44  stm32f1xx_hal_uart.o(.text)
    HAL_UART_DMAPause                        0x08010021   Thumb Code   166  stm32f1xx_hal_uart.o(.text)
    HAL_UART_DMAResume                       0x080100c7   Thumb Code   170  stm32f1xx_hal_uart.o(.text)
    HAL_UART_DMAStop                         0x08010171   Thumb Code   160  stm32f1xx_hal_uart.o(.text)
    HAL_UARTEx_ReceiveToIdle                 0x08010211   Thumb Code   296  stm32f1xx_hal_uart.o(.text)
    HAL_UARTEx_ReceiveToIdle_IT              0x08010339   Thumb Code   114  stm32f1xx_hal_uart.o(.text)
    HAL_UARTEx_ReceiveToIdle_DMA             0x080103ab   Thumb Code   114  stm32f1xx_hal_uart.o(.text)
    HAL_UARTEx_GetRxEventType                0x0801041d   Thumb Code     6  stm32f1xx_hal_uart.o(.text)
    HAL_UART_Abort                           0x08010423   Thumb Code   278  stm32f1xx_hal_uart.o(.text)
    HAL_UART_AbortTransmit                   0x08010539   Thumb Code   124  stm32f1xx_hal_uart.o(.text)
    HAL_UART_AbortReceive                    0x080105b5   Thumb Code   194  stm32f1xx_hal_uart.o(.text)
    HAL_UART_AbortCpltCallback               0x08010677   Thumb Code     2  stm32f1xx_hal_uart.o(.text)
    HAL_UART_Abort_IT                        0x080106e9   Thumb Code   320  stm32f1xx_hal_uart.o(.text)
    HAL_UART_AbortTransmitCpltCallback       0x08010829   Thumb Code     2  stm32f1xx_hal_uart.o(.text)
    HAL_UART_AbortTransmit_IT                0x08010843   Thumb Code   138  stm32f1xx_hal_uart.o(.text)
    HAL_UART_AbortReceiveCpltCallback        0x080108cd   Thumb Code     2  stm32f1xx_hal_uart.o(.text)
    HAL_UART_AbortReceive_IT                 0x080108eb   Thumb Code   212  stm32f1xx_hal_uart.o(.text)
    HAL_UART_IRQHandler                      0x08010b5f   Thumb Code   740  stm32f1xx_hal_uart.o(.text)
    HAL_LIN_SendBreak                        0x08010e43   Thumb Code    80  stm32f1xx_hal_uart.o(.text)
    HAL_MultiProcessor_EnterMuteMode         0x08010e93   Thumb Code    82  stm32f1xx_hal_uart.o(.text)
    HAL_MultiProcessor_ExitMuteMode          0x08010ee5   Thumb Code    82  stm32f1xx_hal_uart.o(.text)
    HAL_HalfDuplex_EnableTransmitter         0x08010f37   Thumb Code    68  stm32f1xx_hal_uart.o(.text)
    HAL_HalfDuplex_EnableReceiver            0x08010f7b   Thumb Code    68  stm32f1xx_hal_uart.o(.text)
    HAL_UART_GetState                        0x08010fbf   Thumb Code    20  stm32f1xx_hal_uart.o(.text)
    HAL_UART_GetError                        0x08010fd3   Thumb Code     6  stm32f1xx_hal_uart.o(.text)
    HAL_InitTick                             0x08010fdf   Thumb Code    64  stm32f1xx_hal.o(.text)
    HAL_Init                                 0x0801101f   Thumb Code    34  stm32f1xx_hal.o(.text)
    HAL_MspDeInit                            0x08011041   Thumb Code     2  stm32f1xx_hal.o(.text)
    HAL_DeInit                               0x08011043   Thumb Code    30  stm32f1xx_hal.o(.text)
    HAL_IncTick                              0x08011061   Thumb Code    16  stm32f1xx_hal.o(.text)
    HAL_GetTick                              0x08011071   Thumb Code     6  stm32f1xx_hal.o(.text)
    HAL_GetTickPrio                          0x08011077   Thumb Code     6  stm32f1xx_hal.o(.text)
    HAL_SetTickFreq                          0x0801107d   Thumb Code    40  stm32f1xx_hal.o(.text)
    HAL_GetTickFreq                          0x080110a5   Thumb Code     6  stm32f1xx_hal.o(.text)
    HAL_Delay                                0x080110ab   Thumb Code    36  stm32f1xx_hal.o(.text)
    HAL_SuspendTick                          0x080110cf   Thumb Code    18  stm32f1xx_hal.o(.text)
    HAL_ResumeTick                           0x080110e1   Thumb Code    18  stm32f1xx_hal.o(.text)
    HAL_GetHalVersion                        0x080110f3   Thumb Code     4  stm32f1xx_hal.o(.text)
    HAL_GetREVID                             0x080110f7   Thumb Code     8  stm32f1xx_hal.o(.text)
    HAL_GetDEVID                             0x080110ff   Thumb Code    10  stm32f1xx_hal.o(.text)
    HAL_GetUIDw0                             0x08011109   Thumb Code     6  stm32f1xx_hal.o(.text)
    HAL_GetUIDw1                             0x0801110f   Thumb Code     8  stm32f1xx_hal.o(.text)
    HAL_GetUIDw2                             0x08011117   Thumb Code     8  stm32f1xx_hal.o(.text)
    HAL_DBGMCU_EnableDBGSleepMode            0x0801111f   Thumb Code    14  stm32f1xx_hal.o(.text)
    HAL_DBGMCU_DisableDBGSleepMode           0x0801112d   Thumb Code    14  stm32f1xx_hal.o(.text)
    HAL_DBGMCU_EnableDBGStopMode             0x0801113b   Thumb Code    14  stm32f1xx_hal.o(.text)
    HAL_DBGMCU_DisableDBGStopMode            0x08011149   Thumb Code    14  stm32f1xx_hal.o(.text)
    HAL_DBGMCU_EnableDBGStandbyMode          0x08011157   Thumb Code    14  stm32f1xx_hal.o(.text)
    HAL_DBGMCU_DisableDBGStandbyMode         0x08011165   Thumb Code    14  stm32f1xx_hal.o(.text)
    HAL_NVIC_SetPriorityGrouping             0x080111b9   Thumb Code    36  stm32f1xx_hal_cortex.o(.text)
    HAL_NVIC_SetPriority                     0x080111dd   Thumb Code   124  stm32f1xx_hal_cortex.o(.text)
    HAL_NVIC_EnableIRQ                       0x08011259   Thumb Code    40  stm32f1xx_hal_cortex.o(.text)
    HAL_NVIC_DisableIRQ                      0x08011281   Thumb Code    38  stm32f1xx_hal_cortex.o(.text)
    HAL_NVIC_SystemReset                     0x080112a7   Thumb Code    40  stm32f1xx_hal_cortex.o(.text)
    HAL_SYSTICK_Config                       0x080112cf   Thumb Code    52  stm32f1xx_hal_cortex.o(.text)
    HAL_NVIC_GetPriorityGrouping             0x08011303   Thumb Code     8  stm32f1xx_hal_cortex.o(.text)
    HAL_NVIC_GetPriority                     0x0801130b   Thumb Code   138  stm32f1xx_hal_cortex.o(.text)
    HAL_NVIC_SetPendingIRQ                   0x08011395   Thumb Code    32  stm32f1xx_hal_cortex.o(.text)
    HAL_NVIC_GetPendingIRQ                   0x080113b5   Thumb Code    46  stm32f1xx_hal_cortex.o(.text)
    HAL_NVIC_ClearPendingIRQ                 0x080113e3   Thumb Code    30  stm32f1xx_hal_cortex.o(.text)
    HAL_NVIC_GetActive                       0x08011401   Thumb Code    46  stm32f1xx_hal_cortex.o(.text)
    HAL_SYSTICK_CLKSourceConfig              0x0801142f   Thumb Code    40  stm32f1xx_hal_cortex.o(.text)
    HAL_SYSTICK_Callback                     0x08011457   Thumb Code     2  stm32f1xx_hal_cortex.o(.text)
    HAL_SYSTICK_IRQHandler                   0x08011459   Thumb Code     8  stm32f1xx_hal_cortex.o(.text)
    HAL_RCC_DeInit                           0x08011481   Thumb Code   254  stm32f1xx_hal_rcc.o(.text)
    HAL_RCC_OscConfig                        0x080115a3   Thumb Code  1126  stm32f1xx_hal_rcc.o(.text)
    HAL_RCC_GetSysClockFreq                  0x08011a09   Thumb Code    92  stm32f1xx_hal_rcc.o(.text)
    HAL_RCC_ClockConfig                      0x08011a65   Thumb Code   376  stm32f1xx_hal_rcc.o(.text)
    HAL_RCC_MCOConfig                        0x08011bdd   Thumb Code    90  stm32f1xx_hal_rcc.o(.text)
    HAL_RCC_EnableCSS                        0x08011c37   Thumb Code     8  stm32f1xx_hal_rcc.o(.text)
    HAL_RCC_DisableCSS                       0x08011c3f   Thumb Code     8  stm32f1xx_hal_rcc.o(.text)
    HAL_RCC_GetHCLKFreq                      0x08011c47   Thumb Code     6  stm32f1xx_hal_rcc.o(.text)
    HAL_RCC_GetPCLK1Freq                     0x08011c4d   Thumb Code    22  stm32f1xx_hal_rcc.o(.text)
    HAL_RCC_GetPCLK2Freq                     0x08011c63   Thumb Code    70  stm32f1xx_hal_rcc.o(.text)
    HAL_RCC_GetOscConfig                     0x08011ca9   Thumb Code   196  stm32f1xx_hal_rcc.o(.text)
    HAL_RCC_GetClockConfig                   0x08011d6d   Thumb Code    58  stm32f1xx_hal_rcc.o(.text)
    HAL_RCC_CSSCallback                      0x08011da7   Thumb Code     2  stm32f1xx_hal_rcc.o(.text)
    HAL_RCC_NMI_IRQHandler                   0x08011da9   Thumb Code    26  stm32f1xx_hal_rcc.o(.text)
    HAL_RCCEx_PeriphCLKConfig                0x08011dcd   Thumb Code   290  stm32f1xx_hal_rcc_ex.o(.text)
    HAL_RCCEx_GetPeriphCLKConfig             0x08011eef   Thumb Code    78  stm32f1xx_hal_rcc_ex.o(.text)
    HAL_RCCEx_GetPeriphCLKFreq               0x08011f3d   Thumb Code   260  stm32f1xx_hal_rcc_ex.o(.text)
    HAL_I2C_AddrCallback                     0x0801205f   Thumb Code     2  stm32f1xx_hal_i2c.o(.text)
    HAL_I2C_AbortCpltCallback                0x08012061   Thumb Code     2  stm32f1xx_hal_i2c.o(.text)
    HAL_I2C_ErrorCallback                    0x08012063   Thumb Code     2  stm32f1xx_hal_i2c.o(.text)
    HAL_I2C_MemRxCpltCallback                0x08012065   Thumb Code     2  stm32f1xx_hal_i2c.o(.text)
    HAL_I2C_MemTxCpltCallback                0x08012067   Thumb Code     2  stm32f1xx_hal_i2c.o(.text)
    HAL_I2C_ListenCpltCallback               0x08012069   Thumb Code     2  stm32f1xx_hal_i2c.o(.text)
    HAL_I2C_SlaveRxCpltCallback              0x0801206b   Thumb Code     2  stm32f1xx_hal_i2c.o(.text)
    HAL_I2C_SlaveTxCpltCallback              0x0801206d   Thumb Code     2  stm32f1xx_hal_i2c.o(.text)
    HAL_I2C_MasterRxCpltCallback             0x0801206f   Thumb Code     2  stm32f1xx_hal_i2c.o(.text)
    HAL_I2C_MasterTxCpltCallback             0x08012071   Thumb Code     2  stm32f1xx_hal_i2c.o(.text)
    HAL_I2C_Init                             0x08012073   Thumb Code   494  stm32f1xx_hal_i2c.o(.text)
    HAL_I2C_DeInit                           0x08012263   Thumb Code    74  stm32f1xx_hal_i2c.o(.text)
    HAL_I2C_RegisterCallback                 0x080122ad   Thumb Code   194  stm32f1xx_hal_i2c.o(.text)
    HAL_I2C_UnRegisterCallback               0x0801236f   Thumb Code   204  stm32f1xx_hal_i2c.o(.text)
    HAL_I2C_RegisterAddrCallback             0x0801243b   Thumb Code   142  stm32f1xx_hal_i2c.o(.text)
    HAL_I2C_UnRegisterAddrCallback           0x080124c9   Thumb Code    64  stm32f1xx_hal_i2c.o(.text)
    HAL_I2C_Master_Transmit                  0x080128a7   Thumb Code   374  stm32f1xx_hal_i2c.o(.text)
    HAL_I2C_Master_Receive                   0x08012bdb   Thumb Code   872  stm32f1xx_hal_i2c.o(.text)
    HAL_I2C_Slave_Transmit                   0x08012f43   Thumb Code   400  stm32f1xx_hal_i2c.o(.text)
    HAL_I2C_Slave_Receive                    0x08013135   Thumb Code   390  stm32f1xx_hal_i2c.o(.text)
    HAL_I2C_Master_Transmit_IT               0x080132bb   Thumb Code   224  stm32f1xx_hal_i2c.o(.text)
    HAL_I2C_Master_Receive_IT                0x0801339b   Thumb Code   236  stm32f1xx_hal_i2c.o(.text)
    HAL_I2C_Slave_Transmit_IT                0x08013487   Thumb Code   146  stm32f1xx_hal_i2c.o(.text)
    HAL_I2C_Slave_Receive_IT                 0x08013519   Thumb Code   160  stm32f1xx_hal_i2c.o(.text)
    HAL_I2C_Master_Transmit_DMA              0x0801372f   Thumb Code   434  stm32f1xx_hal_i2c.o(.text)
    HAL_I2C_Master_Receive_DMA               0x080138e1   Thumb Code   434  stm32f1xx_hal_i2c.o(.text)
    HAL_I2C_Slave_Transmit_DMA               0x08013a93   Thumb Code   304  stm32f1xx_hal_i2c.o(.text)
    HAL_I2C_Slave_Receive_DMA                0x08013bc3   Thumb Code   286  stm32f1xx_hal_i2c.o(.text)
    HAL_I2C_Mem_Write                        0x08013dbd   Thumb Code   348  stm32f1xx_hal_i2c.o(.text)
    HAL_I2C_Mem_Read                         0x0801408b   Thumb Code   854  stm32f1xx_hal_i2c.o(.text)
    HAL_I2C_Mem_Write_IT                     0x080143e1   Thumb Code   256  stm32f1xx_hal_i2c.o(.text)
    HAL_I2C_Mem_Read_IT                      0x080144e1   Thumb Code   254  stm32f1xx_hal_i2c.o(.text)
    HAL_I2C_Mem_Write_DMA                    0x080145df   Thumb Code   514  stm32f1xx_hal_i2c.o(.text)
    HAL_I2C_Mem_Read_DMA                     0x080147e1   Thumb Code   608  stm32f1xx_hal_i2c.o(.text)
    HAL_I2C_IsDeviceReady                    0x08014a41   Thumb Code   430  stm32f1xx_hal_i2c.o(.text)
    HAL_I2C_Master_Seq_Transmit_IT           0x08014bef   Thumb Code   304  stm32f1xx_hal_i2c.o(.text)
    HAL_I2C_Master_Seq_Transmit_DMA          0x08014d1f   Thumb Code   536  stm32f1xx_hal_i2c.o(.text)
    HAL_I2C_Master_Seq_Receive_IT            0x08014f37   Thumb Code   360  stm32f1xx_hal_i2c.o(.text)
    HAL_I2C_Master_Seq_Receive_DMA           0x0801509f   Thumb Code   674  stm32f1xx_hal_i2c.o(.text)
    HAL_I2C_Slave_Seq_Transmit_IT            0x08015341   Thumb Code   158  stm32f1xx_hal_i2c.o(.text)
    HAL_I2C_Slave_Seq_Transmit_DMA           0x080154d1   Thumb Code   462  stm32f1xx_hal_i2c.o(.text)
    HAL_I2C_Slave_Seq_Receive_IT             0x0801569f   Thumb Code   158  stm32f1xx_hal_i2c.o(.text)
    HAL_I2C_Slave_Seq_Receive_DMA            0x0801573d   Thumb Code   446  stm32f1xx_hal_i2c.o(.text)
    HAL_I2C_EnableListen_IT                  0x080158fb   Thumb Code    70  stm32f1xx_hal_i2c.o(.text)
    HAL_I2C_DisableListen_IT                 0x08015941   Thumb Code    70  stm32f1xx_hal_i2c.o(.text)
    HAL_I2C_Master_Abort_IT                  0x08015b2b   Thumb Code   138  stm32f1xx_hal_i2c.o(.text)
    HAL_I2C_ER_IRQHandler                    0x080168f1   Thumb Code   224  stm32f1xx_hal_i2c.o(.text)
    HAL_I2C_GetState                         0x080169d1   Thumb Code     8  stm32f1xx_hal_i2c.o(.text)
    HAL_I2C_GetMode                          0x080169d9   Thumb Code     8  stm32f1xx_hal_i2c.o(.text)
    HAL_I2C_GetError                         0x080169e1   Thumb Code     6  stm32f1xx_hal_i2c.o(.text)
    HAL_RTCEx_SetTamper                      0x080169ed   Thumb Code    98  stm32f1xx_hal_rtc_ex.o(.text)
    HAL_RTCEx_SetTamper_IT                   0x08016a4f   Thumb Code   110  stm32f1xx_hal_rtc_ex.o(.text)
    HAL_RTCEx_DeactivateTamper               0x08016abd   Thumb Code    94  stm32f1xx_hal_rtc_ex.o(.text)
    HAL_RTCEx_TamperIRQHandler               0x08016b1b   Thumb Code    56  stm32f1xx_hal_rtc_ex.o(.text)
    HAL_RTCEx_Tamper1EventCallback           0x08016b53   Thumb Code     2  stm32f1xx_hal_rtc_ex.o(.text)
    HAL_RTCEx_PollForTamper1Event            0x08016b55   Thumb Code    80  stm32f1xx_hal_rtc_ex.o(.text)
    HAL_RTCEx_SetSecond_IT                   0x08016ba5   Thumb Code    58  stm32f1xx_hal_rtc_ex.o(.text)
    HAL_RTCEx_DeactivateSecond               0x08016bdf   Thumb Code    58  stm32f1xx_hal_rtc_ex.o(.text)
    HAL_RTCEx_RTCEventCallback               0x08016c19   Thumb Code     2  stm32f1xx_hal_rtc_ex.o(.text)
    HAL_RTCEx_RTCEventErrorCallback          0x08016c1b   Thumb Code     2  stm32f1xx_hal_rtc_ex.o(.text)
    HAL_RTCEx_RTCIRQHandler                  0x08016c1d   Thumb Code    78  stm32f1xx_hal_rtc_ex.o(.text)
    HAL_RTCEx_BKUPWrite                      0x08016c6b   Thumb Code    20  stm32f1xx_hal_rtc_ex.o(.text)
    HAL_RTCEx_BKUPRead                       0x08016c7f   Thumb Code    22  stm32f1xx_hal_rtc_ex.o(.text)
    HAL_RTCEx_SetSmoothCalib                 0x08016c95   Thumb Code    62  stm32f1xx_hal_rtc_ex.o(.text)
    ADC_ConversionStop_Disable               0x08016cd9   Thumb Code    92  stm32f1xx_hal_adc.o(.text)
    HAL_ADC_Init                             0x08016d37   Thumb Code   340  stm32f1xx_hal_adc.o(.text)
    HAL_ADC_MspDeInit                        0x08016e8b   Thumb Code     2  stm32f1xx_hal_adc.o(.text)
    HAL_ADC_DeInit                           0x08016e8d   Thumb Code   258  stm32f1xx_hal_adc.o(.text)
    ADC_Enable                               0x08016f8f   Thumb Code   134  stm32f1xx_hal_adc.o(.text)
    HAL_ADC_Start                            0x08017015   Thumb Code   294  stm32f1xx_hal_adc.o(.text)
    HAL_ADC_Stop                             0x0801713b   Thumb Code   102  stm32f1xx_hal_adc.o(.text)
    HAL_ADC_PollForConversion                0x080171a1   Thumb Code   366  stm32f1xx_hal_adc.o(.text)
    HAL_ADC_PollForEvent                     0x0801730f   Thumb Code   118  stm32f1xx_hal_adc.o(.text)
    HAL_ADC_Start_IT                         0x08017385   Thumb Code   306  stm32f1xx_hal_adc.o(.text)
    HAL_ADC_Stop_IT                          0x080174b7   Thumb Code    76  stm32f1xx_hal_adc.o(.text)
    HAL_ADC_ErrorCallback                    0x08017503   Thumb Code     2  stm32f1xx_hal_adc.o(.text)
    ADC_DMAError                             0x08017505   Thumb Code    30  stm32f1xx_hal_adc.o(.text)
    HAL_ADC_ConvHalfCpltCallback             0x08017523   Thumb Code     2  stm32f1xx_hal_adc.o(.text)
    ADC_DMAHalfConvCplt                      0x08017525   Thumb Code    14  stm32f1xx_hal_adc.o(.text)
    ADC_DMAConvCplt                          0x08017535   Thumb Code    82  stm32f1xx_hal_adc.o(.text)
    HAL_ADC_Start_DMA                        0x08017587   Thumb Code   390  stm32f1xx_hal_adc.o(.text)
    HAL_ADC_Stop_DMA                         0x0801770d   Thumb Code   106  stm32f1xx_hal_adc.o(.text)
    HAL_ADC_GetValue                         0x08017777   Thumb Code     8  stm32f1xx_hal_adc.o(.text)
    HAL_ADC_LevelOutOfWindowCallback         0x0801777f   Thumb Code     2  stm32f1xx_hal_adc.o(.text)
    HAL_ADC_IRQHandler                       0x08017781   Thumb Code   274  stm32f1xx_hal_adc.o(.text)
    HAL_ADC_ConfigChannel                    0x08017893   Thumb Code   338  stm32f1xx_hal_adc.o(.text)
    HAL_ADC_AnalogWDGConfig                  0x080179e5   Thumb Code   158  stm32f1xx_hal_adc.o(.text)
    HAL_ADC_GetState                         0x08017a83   Thumb Code     6  stm32f1xx_hal_adc.o(.text)
    HAL_ADC_GetError                         0x08017a89   Thumb Code     6  stm32f1xx_hal_adc.o(.text)
    HAL_ADCEx_Calibration_Start              0x08017a95   Thumb Code   278  stm32f1xx_hal_adc_ex.o(.text)
    HAL_ADCEx_InjectedStart                  0x08017bab   Thumb Code   226  stm32f1xx_hal_adc_ex.o(.text)
    HAL_ADCEx_InjectedStop                   0x08017c8d   Thumb Code    94  stm32f1xx_hal_adc_ex.o(.text)
    HAL_ADCEx_InjectedPollForConversion      0x08017ceb   Thumb Code   346  stm32f1xx_hal_adc_ex.o(.text)
    HAL_ADCEx_InjectedStart_IT               0x08017e45   Thumb Code   264  stm32f1xx_hal_adc_ex.o(.text)
    HAL_ADCEx_InjectedStop_IT                0x08017f4d   Thumb Code   106  stm32f1xx_hal_adc_ex.o(.text)
    HAL_ADCEx_MultiModeStart_DMA             0x08017fb7   Thumb Code   262  stm32f1xx_hal_adc_ex.o(.text)
    HAL_ADCEx_MultiModeStop_DMA              0x080180bd   Thumb Code   144  stm32f1xx_hal_adc_ex.o(.text)
    HAL_ADCEx_InjectedGetValue               0x0801814d   Thumb Code    50  stm32f1xx_hal_adc_ex.o(.text)
    HAL_ADCEx_MultiModeGetValue              0x0801817f   Thumb Code    32  stm32f1xx_hal_adc_ex.o(.text)
    HAL_ADCEx_InjectedConvCpltCallback       0x0801819f   Thumb Code     2  stm32f1xx_hal_adc_ex.o(.text)
    HAL_ADCEx_InjectedConfigChannel          0x080181a1   Thumb Code   638  stm32f1xx_hal_adc_ex.o(.text)
    HAL_ADCEx_MultiModeConfigChannel         0x0801841f   Thumb Code   116  stm32f1xx_hal_adc_ex.o(.text)
    __aeabi_llsr                             0x080184a5   Thumb Code    32  llushr.o(.text)
    _ll_ushift_r                             0x080184a5   Thumb Code     0  llushr.o(.text)
    __aeabi_memcpy                           0x080184c5   Thumb Code    36  memcpya.o(.text)
    __aeabi_memcpy4                          0x080184c5   Thumb Code     0  memcpya.o(.text)
    __aeabi_memcpy8                          0x080184c5   Thumb Code     0  memcpya.o(.text)
    __aeabi_memset                           0x080184e9   Thumb Code    14  memseta.o(.text)
    __aeabi_memset4                          0x080184e9   Thumb Code     0  memseta.o(.text)
    __aeabi_memset8                          0x080184e9   Thumb Code     0  memseta.o(.text)
    __aeabi_memclr                           0x080184f7   Thumb Code     4  memseta.o(.text)
    __aeabi_memclr4                          0x080184f7   Thumb Code     0  memseta.o(.text)
    __aeabi_memclr8                          0x080184f7   Thumb Code     0  memseta.o(.text)
    memset                                   0x080184fb   Thumb Code    18  memseta.o(.text)
    strncpy                                  0x0801850d   Thumb Code    24  strncpy.o(.text)
    strlen                                   0x08018525   Thumb Code    14  strlen.o(.text)
    strcmp                                   0x08018533   Thumb Code    28  strcmp.o(.text)
    strncmp                                  0x0801854f   Thumb Code    30  strncmp.o(.text)
    strtok                                   0x0801856d   Thumb Code    62  strtok.o(.text)
    strtol                                   0x080185b1   Thumb Code   112  strtol.o(.text)
    atoi                                     0x08018621   Thumb Code    26  atoi.o(.text)
    __aeabi_fmul                             0x0801863b   Thumb Code   100  fmul.o(.text)
    __aeabi_fdiv                             0x0801869f   Thumb Code   124  fdiv.o(.text)
    __aeabi_dadd                             0x0801871b   Thumb Code   322  dadd.o(.text)
    __aeabi_dsub                             0x0801885d   Thumb Code     6  dadd.o(.text)
    __aeabi_drsub                            0x08018863   Thumb Code     6  dadd.o(.text)
    __aeabi_ddiv                             0x08018869   Thumb Code   222  ddiv.o(.text)
    __aeabi_i2f                              0x08018947   Thumb Code    18  fflti.o(.text)
    __aeabi_ui2f                             0x08018959   Thumb Code    10  ffltui.o(.text)
    __aeabi_i2d                              0x08018963   Thumb Code    34  dflti.o(.text)
    __aeabi_f2iz                             0x08018985   Thumb Code    50  ffixi.o(.text)
    __aeabi_d2iz                             0x080189b7   Thumb Code    62  dfixi.o(.text)
    __aeabi_f2d                              0x080189f5   Thumb Code    38  f2d.o(.text)
    __aeabi_d2f                              0x08018a1b   Thumb Code    56  d2f.o(.text)
    __aeabi_uidiv                            0x08018a53   Thumb Code     0  uidiv.o(.text)
    __aeabi_uidivmod                         0x08018a53   Thumb Code    44  uidiv.o(.text)
    __aeabi_uldivmod                         0x08018a7f   Thumb Code    98  uldiv.o(.text)
    __aeabi_llsl                             0x08018ae1   Thumb Code    30  llshl.o(.text)
    _ll_shift_l                              0x08018ae1   Thumb Code     0  llshl.o(.text)
    __aeabi_lasr                             0x08018aff   Thumb Code    36  llsshr.o(.text)
    _ll_sshift_r                             0x08018aff   Thumb Code     0  llsshr.o(.text)
    __rt_ctype_table                         0x08018b25   Thumb Code     4  ctype_o.o(.text)
    _strtoul                                 0x08018b2d   Thumb Code   158  _strtoul.o(.text)
    __I$use$fp                               0x08018bcb   Thumb Code     0  iusefp.o(.text)
    _float_round                             0x08018bcb   Thumb Code    18  fepilogue.o(.text)
    _float_epilogue                          0x08018bdd   Thumb Code    92  fepilogue.o(.text)
    _double_round                            0x08018c39   Thumb Code    30  depilogue.o(.text)
    _double_epilogue                         0x08018c57   Thumb Code   156  depilogue.o(.text)
    __aeabi_dmul                             0x08018cf3   Thumb Code   228  dmul.o(.text)
    __aeabi_d2ulz                            0x08018dd7   Thumb Code    48  dfixul.o(.text)
    __aeabi_cdrcmple                         0x08018e09   Thumb Code    48  cdrcmple.o(.text)
    __scatterload                            0x08018e39   Thumb Code    28  init.o(.text)
    __scatterload_rt2                        0x08018e39   Thumb Code     0  init.o(.text)
    _chval                                   0x08018e5d   Thumb Code    28  _chval.o(.text)
    __decompress                             0x08018e79   Thumb Code     0  __dczerorl2.o(.text)
    __decompress1                            0x08018e79   Thumb Code    86  __dczerorl2.o(.text)
    Error_Handler                            0x08018ecf   Thumb Code     6  main.o(i.Error_Handler)
    FIFO_Empty                               0x08018ed5   Thumb Code    14  fifo.o(i.FIFO_Empty)
    UART_sendByte                            0x08018ee3   Thumb Code    16  bsp_uartcomm.o(i.UART_sendByte)
    __0printf                                0x08018ef5   Thumb Code    22  printfa.o(i.__0printf)
    __1printf                                0x08018ef5   Thumb Code     0  printfa.o(i.__0printf)
    __2printf                                0x08018ef5   Thumb Code     0  printfa.o(i.__0printf)
    __c89printf                              0x08018ef5   Thumb Code     0  printfa.o(i.__0printf)
    printf                                   0x08018ef5   Thumb Code     0  printfa.o(i.__0printf)
    __0sprintf                               0x08018f15   Thumb Code    34  printfa.o(i.__0sprintf)
    __1sprintf                               0x08018f15   Thumb Code     0  printfa.o(i.__0sprintf)
    __2sprintf                               0x08018f15   Thumb Code     0  printfa.o(i.__0sprintf)
    __c89sprintf                             0x08018f15   Thumb Code     0  printfa.o(i.__0sprintf)
    sprintf                                  0x08018f15   Thumb Code     0  printfa.o(i.__0sprintf)
    __0vsnprintf                             0x08018f3d   Thumb Code    46  printfa.o(i.__0vsnprintf)
    __1vsnprintf                             0x08018f3d   Thumb Code     0  printfa.o(i.__0vsnprintf)
    __2vsnprintf                             0x08018f3d   Thumb Code     0  printfa.o(i.__0vsnprintf)
    __c89vsnprintf                           0x08018f3d   Thumb Code     0  printfa.o(i.__0vsnprintf)
    vsnprintf                                0x08018f3d   Thumb Code     0  printfa.o(i.__0vsnprintf)
    __aeabi_errno_addr                       0x08018f71   Thumb Code     4  errno.o(i.__aeabi_errno_addr)
    __rt_errno_addr                          0x08018f71   Thumb Code     0  errno.o(i.__aeabi_errno_addr)
    __scatterload_copy                       0x08018f79   Thumb Code    14  handlers.o(i.__scatterload_copy)
    __scatterload_null                       0x08018f87   Thumb Code     2  handlers.o(i.__scatterload_null)
    __scatterload_zeroinit                   0x08018f89   Thumb Code    14  handlers.o(i.__scatterload_zeroinit)
    shellCmdee                               0x08019874   Data           3  eeprom.o(.constdata)
    shellDescee                              0x08019877   Data          18  eeprom.o(.constdata)
    shellCmdtemp                             0x08019889   Data           5  temperatureinside.o(.constdata)
    shellDesctemp                            0x0801988e   Data          23  temperatureinside.o(.constdata)
    shellCmdpwm                              0x08019968   Data           4  pwm.o(.constdata)
    shellDescpwm                             0x0801996c   Data          13  pwm.o(.constdata)
    shellCmdDefaultUser                      0x08019979   Data           6  shell.o(.constdata)
    shellPasswordDefaultUser                 0x0801997f   Data           5  shell.o(.constdata)
    shellDesDefaultUser                      0x08019984   Data          13  shell.o(.constdata)
    shellDesc0x1B5B4100                      0x08019991   Data           3  shell.o(.constdata)
    shellDesc0x03000000                      0x08019994   Data           6  shell.o(.constdata)
    shellDesc0x1B5B4200                      0x0801999a   Data           5  shell.o(.constdata)
    shellDesc0x1B5B4300                      0x0801999f   Data           6  shell.o(.constdata)
    shellDesc0x1B5B4400                      0x080199a5   Data           5  shell.o(.constdata)
    shellDesc0x09000000                      0x080199aa   Data           4  shell.o(.constdata)
    shellDesc0x08000000                      0x080199ae   Data          10  shell.o(.constdata)
    shellDesc0x7F000000                      0x080199b8   Data          10  shell.o(.constdata)
    shellDesc0x1B5B337E                      0x080199c2   Data           7  shell.o(.constdata)
    shellDesc0x0D000000                      0x080199c9   Data           6  shell.o(.constdata)
    shellDesc0x0D0A0000                      0x080199cf   Data           6  shell.o(.constdata)
    shellCmdhelp                             0x080199d5   Data           5  shell.o(.constdata)
    shellDeschelp                            0x080199da   Data          30  shell.o(.constdata)
    shellCmdcmds                             0x080199f8   Data           5  shell.o(.constdata)
    shellDesccmds                            0x080199fd   Data          13  shell.o(.constdata)
    shellCmdclear                            0x08019a0a   Data           6  shell.o(.constdata)
    shellDescclear                           0x08019a10   Data          14  shell.o(.constdata)
    shellCmdgpio                             0x08019a38   Data           5  gpio_shell.o(.constdata)
    shellDescgpio                            0x08019a3d   Data          13  gpio_shell.o(.constdata)
    shellCmdreboot                           0x08019a4a   Data           7  main.o(.constdata)
    shellDescreboot                          0x08019a51   Data          11  main.o(.constdata)
    shellCmdhf                               0x08019af4   Data           3  cm_backtrace.o(.constdata)
    shellDeschf                              0x08019af7   Data          22  cm_backtrace.o(.constdata)
    AHBPrescTable                            0x08019b70   Data          16  system_stm32f1xx.o(.constdata)
    APBPrescTable                            0x08019b80   Data           8  system_stm32f1xx.o(.constdata)
    __ctype_table                            0x08019bac   Data         129  ctype_o.o(.constdata)
    Region$$Table$$Base                      0x0801a814   Number         0  anon$$obj.o(Region$$Table)
    Region$$Table$$Limit                     0x0801a834   Number         0  anon$$obj.o(Region$$Table)
    shellCommand$$Base                       0x0801a834   Number         0  eeprom.o(shellCommand)
    shellCommandee                           0x0801a834   Data          16  eeprom.o(shellCommand)
    shellCommandtemp                         0x0801a844   Data          16  temperatureinside.o(shellCommand)
    shellCommandpwm                          0x0801a854   Data          16  pwm.o(shellCommand)
    shellUserDefault                         0x0801a864   Data          16  shell.o(shellCommand)
    shellKey0x1B5B4100                       0x0801a874   Data          16  shell.o(shellCommand)
    shellKey0x03000000                       0x0801a884   Data          16  shell.o(shellCommand)
    shellKey0x1B5B4200                       0x0801a894   Data          16  shell.o(shellCommand)
    shellKey0x1B5B4300                       0x0801a8a4   Data          16  shell.o(shellCommand)
    shellKey0x1B5B4400                       0x0801a8b4   Data          16  shell.o(shellCommand)
    shellKey0x09000000                       0x0801a8c4   Data          16  shell.o(shellCommand)
    shellKey0x08000000                       0x0801a8d4   Data          16  shell.o(shellCommand)
    shellKey0x7F000000                       0x0801a8e4   Data          16  shell.o(shellCommand)
    shellKey0x1B5B337E                       0x0801a8f4   Data          16  shell.o(shellCommand)
    shellKey0x0D000000                       0x0801a904   Data          16  shell.o(shellCommand)
    shellKey0x0D0A0000                       0x0801a914   Data          16  shell.o(shellCommand)
    shellCommandhelp                         0x0801a924   Data          16  shell.o(shellCommand)
    shellCommandcmds                         0x0801a934   Data          16  shell.o(shellCommand)
    shellCommandclear                        0x0801a944   Data          16  shell.o(shellCommand)
    shellCommandgpio                         0x0801a954   Data          16  gpio_shell.o(shellCommand)
    shellCommandreboot                       0x0801a964   Data          16  main.o(shellCommand)
    shellCommandhf                           0x0801a974   Data          16  cm_backtrace.o(shellCommand)
    Image$$ER_IROM1$$Limit                   0x0801a984   Number         0  anon$$obj.o ABSOLUTE
    Image$$MY_REGION$$Base                   0x0801a984   Number         0  anon$$obj.o ABSOLUTE
    shellCommand$$Limit                      0x0801a984   Number         0  cm_backtrace.o(shellCommand)
    Image$$MY_REGION$$Limit                  0x0801a9a4   Number         0  anon$$obj.o ABSOLUTE
    I2C1_EEPROM_ADDR                         0x20000004   Data           1  eeprom.o(.data)
    g_isPrintUseFifo                         0x2000000c   Data           1  bsp_uartcomm.o(.data)
    g_uart1Handle                            0x20000010   Data          72  bsp_usart1.o(.data)
    g_UARTPara                               0x20000058   Data          56  bsp_usart1.o(.data)
    xHigherPriorityTaskWoken_YES             0x20000100   Data           4  main.o(.data)
    xHigherPriorityTaskWoken_NO              0x20000104   Data           4  main.o(.data)
    g_debugLevel                             0x20000108   Data           4  main.o(.data)
    gp_xHandle_Task_uartMonitor              0x2000010c   Data           4  main.o(.data)
    gp_xHandle_Task_shell                    0x20000110   Data           4  main.o(.data)
    SystemCoreClock                          0x20000164   Data           4  system_stm32f1xx.o(.data)
    pxCurrentTCB                             0x20000168   Data           4  tasks.o(.data)
    uxTopUsedPriority                        0x200001a0   Data           4  tasks.o(.data)
    uwTick                                   0x200001e8   Data           4  stm32f1xx_hal.o(.data)
    uwTickPrio                               0x200001ec   Data           4  stm32f1xx_hal.o(.data)
    uwTickFreq                               0x200001f0   Data           1  stm32f1xx_hal.o(.data)
    __stdout                                 0x200001f8   Data           4  stdout.o(.data)
    hdma_adc1                                0x20000610   Data          68  temperatureinside.o(.bss)
    g_hdma_usart1_tx                         0x20000684   Data          68  bsp_usart1.o(.bss)
    PwmCfg                                   0x200008f0   Data          20  pwm.o(.bss)
    TimHandle                                0x20000904   Data          72  pwm.o(.bss)
    sConfig                                  0x2000094c   Data          28  pwm.o(.bss)
    shell                                    0x200009f8   Data         108  shell_port.o(.bss)
    hi2c1                                    0x20000b2c   Data         132  main.o(.bss)
    hdma_i2c1_tx                             0x20000bb0   Data          68  main.o(.bss)
    xQueueRegistry                           0x20000d28   Data          64  queue.o(.bss)
    STACK$$Base                              0x20008a58   Number         0  startup_stm32f103xe.o(STACK)
    STACK$$Limit                             0x20008e58   Number         0  startup_stm32f103xe.o(STACK)
    __initial_sp                             0x20008e58   Data           0  startup_stm32f103xe.o(STACK)



==============================================================================

Memory Map of the image

  Image Entry point : 0x08000131

  Load Region LR_IROM1 (Base: 0x08000000, Size: 0x0001aba4, Max: 0x00040000, ABSOLUTE, COMPRESSED[0x0001aa24])

    Execution Region ER_IROM1 (Exec base: 0x08000000, Load base: 0x08000000, Size: 0x0001a984, Max: 0x00040000, ABSOLUTE)

    Exec Addr    Load Addr    Size         Type   Attr      Idx    E Section Name        Object

    0x08000000   0x08000000   0x00000130   Data   RO         1134    RESET               startup_stm32f103xe.o
    0x08000130   0x08000130   0x00000000   Code   RO         1844  * .ARM.Collect$$$$00000000  mc_w.l(entry.o)
    0x08000130   0x08000130   0x00000004   Code   RO         2158    .ARM.Collect$$$$00000001  mc_w.l(entry2.o)
    0x08000134   0x08000134   0x00000004   Code   RO         2161    .ARM.Collect$$$$00000004  mc_w.l(entry5.o)
    0x08000138   0x08000138   0x00000000   Code   RO         2163    .ARM.Collect$$$$00000008  mc_w.l(entry7b.o)
    0x08000138   0x08000138   0x00000000   Code   RO         2165    .ARM.Collect$$$$0000000A  mc_w.l(entry8b.o)
    0x08000138   0x08000138   0x00000008   Code   RO         2166    .ARM.Collect$$$$0000000B  mc_w.l(entry9a.o)
    0x08000140   0x08000140   0x00000004   Code   RO         2173    .ARM.Collect$$$$0000000E  mc_w.l(entry12b.o)
    0x08000144   0x08000144   0x00000000   Code   RO         2168    .ARM.Collect$$$$0000000F  mc_w.l(entry10a.o)
    0x08000144   0x08000144   0x00000000   Code   RO         2170    .ARM.Collect$$$$00000011  mc_w.l(entry11a.o)
    0x08000144   0x08000144   0x00000004   Code   RO         2159    .ARM.Collect$$$$00002712  mc_w.l(entry2.o)
    0x08000148   0x08000148   0x00000010   Code   RO         1092    .emb_text           cm_backtrace.o
    0x08000158   0x08000158   0x00000096   Code   RO         1324    .emb_text           port.o
    0x080001ee   0x080001ee   0x00000002   PAD
    0x080001f0   0x080001f0   0x000003b8   Code   RO            4    .text               api_utc.o
    0x080005a8   0x080005a8   0x0000022e   Code   RO          176    .text               fifo.o
    0x080007d6   0x080007d6   0x00000002   PAD
    0x080007d8   0x080007d8   0x000000b4   Code   RO          245    .text               print_monitor.o
    0x0800088c   0x0800088c   0x000003c4   Code   RO          323    .text               eeprom.o
    0x08000c50   0x08000c50   0x000001d8   Code   RO          392    .text               temperatureinside.o
    0x08000e28   0x08000e28   0x000002d4   Code   RO          433    .text               bsp_uartcomm.o
    0x080010fc   0x080010fc   0x0000022c   Code   RO          478    .text               bsp_gpio.o
    0x08001328   0x08001328   0x00000100   Code   RO          518    .text               bsp_usart1.o
    0x08001428   0x08001428   0x00000140   Code   RO          569    .text               bsp_i2c.o
    0x08001568   0x08001568   0x00000024   Code   RO          597    .text               initcall.o
    0x0800158c   0x0800158c   0x00000568   Code   RO          618    .text               pwm.o
    0x08001af4   0x08001af4   0x000003a8   Code   RO          652    .text               bsp_i2cs0.o
    0x08001e9c   0x08001e9c   0x0000009c   Code   RO          686    .text               bsp_i2ccomm.o
    0x08001f38   0x08001f38   0x000003a8   Code   RO          723    .text               bsp_i2cs1.o
    0x080022e0   0x080022e0   0x0000016c   Code   RO          781    .text               bsp_key.o
    0x0800244c   0x0800244c   0x00001380   Code   RO          814    .text               shell.o
    0x080037cc   0x080037cc   0x0000034a   Code   RO          863    .text               shell_ext.o
    0x08003b16   0x08003b16   0x00000002   PAD
    0x08003b18   0x08003b18   0x0000004c   Code   RO          887    .text               shell_port.o
    0x08003b64   0x08003b64   0x000003b8   Code   RO          932    .text               gpio_shell.o
    0x08003f1c   0x08003f1c   0x00000498   Code   RO          967    .text               main.o
    0x080043b4   0x080043b4   0x00000208   Code   RO         1042    .text               stm32f1xx_hal_msp.o
    0x080045bc   0x080045bc   0x00000080   Code   RO         1067    .text               stm32f1xx_it.o
    0x0800463c   0x0800463c   0x00000bb4   Code   RO         1096    .text               cm_backtrace.o
    0x080051f0   0x080051f0   0x0000000c   Code   RO         1128    .text               cmb_fault.o
    0x080051fc   0x080051fc   0x00000024   Code   RO         1135    .text               startup_stm32f103xe.o
    0x08005220   0x08005220   0x000000a4   Code   RO         1142    .text               system_stm32f1xx.o
    0x080052c4   0x080052c4   0x00000094   Code   RO         1209    .text               list.o
    0x08005358   0x08005358   0x00001078   Code   RO         1221    .text               queue.o
    0x080063d0   0x080063d0   0x00001fb8   Code   RO         1257    .text               tasks.o
    0x08008388   0x08008388   0x000006f8   Code   RO         1279    .text               timers.o
    0x08008a80   0x08008a80   0x00000340   Code   RO         1309    .text               heap_4.o
    0x08008dc0   0x08008dc0   0x000002a4   Code   RO         1325    .text               port.o
    0x08009064   0x08009064   0x000004f4   Code   RO         1381    .text               stm32f1xx_hal_gpio.o
    0x08009558   0x08009558   0x00000f00   Code   RO         1405    .text               stm32f1xx_hal_dma.o
    0x0800a458   0x0800a458   0x00003b3c   Code   RO         1523    .text               stm32f1xx_hal_tim.o
    0x0800df94   0x0800df94   0x000016f8   Code   RO         1547    .text               stm32f1xx_hal_tim_ex.o
    0x0800f68c   0x0800f68c   0x00001950   Code   RO         1571    .text               stm32f1xx_hal_uart.o
    0x08010fdc   0x08010fdc   0x000001bc   Code   RO         1619    .text               stm32f1xx_hal.o
    0x08011198   0x08011198   0x000002e8   Code   RO         1649    .text               stm32f1xx_hal_cortex.o
    0x08011480   0x08011480   0x0000094c   Code   RO         1701    .text               stm32f1xx_hal_rcc.o
    0x08011dcc   0x08011dcc   0x00000290   Code   RO         1726    .text               stm32f1xx_hal_rcc_ex.o
    0x0801205c   0x0801205c   0x00004990   Code   RO         1751    .text               stm32f1xx_hal_i2c.o
    0x080169ec   0x080169ec   0x000002ec   Code   RO         1775    .text               stm32f1xx_hal_rtc_ex.o
    0x08016cd8   0x08016cd8   0x00000dbc   Code   RO         1799    .text               stm32f1xx_hal_adc.o
    0x08017a94   0x08017a94   0x00000a10   Code   RO         1823    .text               stm32f1xx_hal_adc_ex.o
    0x080184a4   0x080184a4   0x00000020   Code   RO         1847    .text               mc_w.l(llushr.o)
    0x080184c4   0x080184c4   0x00000024   Code   RO         1849    .text               mc_w.l(memcpya.o)
    0x080184e8   0x080184e8   0x00000024   Code   RO         1853    .text               mc_w.l(memseta.o)
    0x0801850c   0x0801850c   0x00000018   Code   RO         1855    .text               mc_w.l(strncpy.o)
    0x08018524   0x08018524   0x0000000e   Code   RO         1857    .text               mc_w.l(strlen.o)
    0x08018532   0x08018532   0x0000001c   Code   RO         1859    .text               mc_w.l(strcmp.o)
    0x0801854e   0x0801854e   0x0000001e   Code   RO         1861    .text               mc_w.l(strncmp.o)
    0x0801856c   0x0801856c   0x00000044   Code   RO         1863    .text               mc_w.l(strtok.o)
    0x080185b0   0x080185b0   0x00000070   Code   RO         2132    .text               mc_w.l(strtol.o)
    0x08018620   0x08018620   0x0000001a   Code   RO         2134    .text               mc_w.l(atoi.o)
    0x0801863a   0x0801863a   0x00000064   Code   RO         2136    .text               mf_w.l(fmul.o)
    0x0801869e   0x0801869e   0x0000007c   Code   RO         2138    .text               mf_w.l(fdiv.o)
    0x0801871a   0x0801871a   0x0000014e   Code   RO         2140    .text               mf_w.l(dadd.o)
    0x08018868   0x08018868   0x000000de   Code   RO         2142    .text               mf_w.l(ddiv.o)
    0x08018946   0x08018946   0x00000012   Code   RO         2144    .text               mf_w.l(fflti.o)
    0x08018958   0x08018958   0x0000000a   Code   RO         2146    .text               mf_w.l(ffltui.o)
    0x08018962   0x08018962   0x00000022   Code   RO         2148    .text               mf_w.l(dflti.o)
    0x08018984   0x08018984   0x00000032   Code   RO         2150    .text               mf_w.l(ffixi.o)
    0x080189b6   0x080189b6   0x0000003e   Code   RO         2152    .text               mf_w.l(dfixi.o)
    0x080189f4   0x080189f4   0x00000026   Code   RO         2154    .text               mf_w.l(f2d.o)
    0x08018a1a   0x08018a1a   0x00000038   Code   RO         2156    .text               mf_w.l(d2f.o)
    0x08018a52   0x08018a52   0x0000002c   Code   RO         2175    .text               mc_w.l(uidiv.o)
    0x08018a7e   0x08018a7e   0x00000062   Code   RO         2177    .text               mc_w.l(uldiv.o)
    0x08018ae0   0x08018ae0   0x0000001e   Code   RO         2179    .text               mc_w.l(llshl.o)
    0x08018afe   0x08018afe   0x00000024   Code   RO         2181    .text               mc_w.l(llsshr.o)
    0x08018b22   0x08018b22   0x00000002   PAD
    0x08018b24   0x08018b24   0x00000008   Code   RO         2183    .text               mc_w.l(ctype_o.o)
    0x08018b2c   0x08018b2c   0x0000009e   Code   RO         2218    .text               mc_w.l(_strtoul.o)
    0x08018bca   0x08018bca   0x00000000   Code   RO         2220    .text               mc_w.l(iusefp.o)
    0x08018bca   0x08018bca   0x0000006e   Code   RO         2221    .text               mf_w.l(fepilogue.o)
    0x08018c38   0x08018c38   0x000000ba   Code   RO         2223    .text               mf_w.l(depilogue.o)
    0x08018cf2   0x08018cf2   0x000000e4   Code   RO         2225    .text               mf_w.l(dmul.o)
    0x08018dd6   0x08018dd6   0x00000030   Code   RO         2227    .text               mf_w.l(dfixul.o)
    0x08018e06   0x08018e06   0x00000002   PAD
    0x08018e08   0x08018e08   0x00000030   Code   RO         2229    .text               mf_w.l(cdrcmple.o)
    0x08018e38   0x08018e38   0x00000024   Code   RO         2231    .text               mc_w.l(init.o)
    0x08018e5c   0x08018e5c   0x0000001c   Code   RO         2233    .text               mc_w.l(_chval.o)
    0x08018e78   0x08018e78   0x00000056   Code   RO         2243    .text               mc_w.l(__dczerorl2.o)
    0x08018ece   0x08018ece   0x00000006   Code   RO          995    i.Error_Handler     main.o
    0x08018ed4   0x08018ed4   0x0000000e   Code   RO          194    i.FIFO_Empty        fifo.o
    0x08018ee2   0x08018ee2   0x00000010   Code   RO          454    i.UART_sendByte     bsp_uartcomm.o
    0x08018ef2   0x08018ef2   0x00000002   PAD
    0x08018ef4   0x08018ef4   0x00000020   Code   RO         2104    i.__0printf         mc_w.l(printfa.o)
    0x08018f14   0x08018f14   0x00000028   Code   RO         2106    i.__0sprintf        mc_w.l(printfa.o)
    0x08018f3c   0x08018f3c   0x00000034   Code   RO         2109    i.__0vsnprintf      mc_w.l(printfa.o)
    0x08018f70   0x08018f70   0x00000008   Code   RO         2211    i.__aeabi_errno_addr  mc_w.l(errno.o)
    0x08018f78   0x08018f78   0x0000000e   Code   RO         2237    i.__scatterload_copy  mc_w.l(handlers.o)
    0x08018f86   0x08018f86   0x00000002   Code   RO         2238    i.__scatterload_null  mc_w.l(handlers.o)
    0x08018f88   0x08018f88   0x0000000e   Code   RO         2239    i.__scatterload_zeroinit  mc_w.l(handlers.o)
    0x08018f96   0x08018f96   0x00000002   PAD
    0x08018f98   0x08018f98   0x00000184   Code   RO         2111    i._fp_digits        mc_w.l(printfa.o)
    0x0801911c   0x0801911c   0x000006b4   Code   RO         2112    i._printf_core      mc_w.l(printfa.o)
    0x080197d0   0x080197d0   0x00000024   Code   RO         2113    i._printf_post_padding  mc_w.l(printfa.o)
    0x080197f4   0x080197f4   0x0000002e   Code   RO         2114    i._printf_pre_padding  mc_w.l(printfa.o)
    0x08019822   0x08019822   0x00000016   Code   RO         2115    i._snputc           mc_w.l(printfa.o)
    0x08019838   0x08019838   0x0000000a   Code   RO         2116    i._sputc            mc_w.l(printfa.o)
    0x08019842   0x08019842   0x00000002   PAD
    0x08019844   0x08019844   0x00000030   Data   RO            5    .constdata          api_utc.o
    0x08019874   0x08019874   0x00000015   Data   RO          325    .constdata          eeprom.o
    0x08019889   0x08019889   0x0000001c   Data   RO          394    .constdata          temperatureinside.o
    0x080198a5   0x080198a5   0x00000003   PAD
    0x080198a8   0x080198a8   0x000000a8   Data   RO          479    .constdata          bsp_gpio.o
    0x08019950   0x08019950   0x00000029   Data   RO          620    .constdata          pwm.o
    0x08019979   0x08019979   0x000000a5   Data   RO          816    .constdata          shell.o
    0x08019a1e   0x08019a1e   0x00000002   PAD
    0x08019a20   0x08019a20   0x0000002a   Data   RO          933    .constdata          gpio_shell.o
    0x08019a4a   0x08019a4a   0x00000012   Data   RO          969    .constdata          main.o
    0x08019a5c   0x08019a5c   0x00000114   Data   RO         1098    .constdata          cm_backtrace.o
    0x08019b70   0x08019b70   0x00000018   Data   RO         1143    .constdata          system_stm32f1xx.o
    0x08019b88   0x08019b88   0x00000012   Data   RO         1702    .constdata          stm32f1xx_hal_rcc.o
    0x08019b9a   0x08019b9a   0x00000012   Data   RO         1727    .constdata          stm32f1xx_hal_rcc_ex.o
    0x08019bac   0x08019bac   0x00000081   Data   RO         2184    .constdata          mc_w.l(ctype_o.o)
    0x08019c2d   0x08019c2d   0x00000003   PAD
    0x08019c30   0x08019c30   0x00000004   Data   RO         2185    .constdata          mc_w.l(ctype_o.o)
    0x08019c34   0x08019c34   0x00000030   Data   RO            6    .conststring        api_utc.o
    0x08019c64   0x08019c64   0x0000004b   Data   RO          326    .conststring        eeprom.o
    0x08019caf   0x08019caf   0x00000001   PAD
    0x08019cb0   0x08019cb0   0x0000002e   Data   RO          480    .conststring        bsp_gpio.o
    0x08019cde   0x08019cde   0x00000002   PAD
    0x08019ce0   0x08019ce0   0x00000159   Data   RO          817    .conststring        shell.o
    0x08019e39   0x08019e39   0x00000003   PAD
    0x08019e3c   0x08019e3c   0x0000004f   Data   RO          934    .conststring        gpio_shell.o
    0x08019e8b   0x08019e8b   0x00000001   PAD
    0x08019e8c   0x08019e8c   0x00000109   Data   RO          970    .conststring        main.o
    0x08019f95   0x08019f95   0x00000003   PAD
    0x08019f98   0x08019f98   0x00000879   Data   RO         1099    .conststring        cm_backtrace.o
    0x0801a811   0x0801a811   0x00000003   PAD
    0x0801a814   0x0801a814   0x00000020   Data   RO         2235    Region$$Table       anon$$obj.o
    0x0801a834   0x0801a834   0x00000010   Data   RO          328    shellCommand        eeprom.o
    0x0801a844   0x0801a844   0x00000010   Data   RO          397    shellCommand        temperatureinside.o
    0x0801a854   0x0801a854   0x00000010   Data   RO          623    shellCommand        pwm.o
    0x0801a864   0x0801a864   0x000000f0   Data   RO          819    shellCommand        shell.o
    0x0801a954   0x0801a954   0x00000010   Data   RO          935    shellCommand        gpio_shell.o
    0x0801a964   0x0801a964   0x00000010   Data   RO          972    shellCommand        main.o
    0x0801a974   0x0801a974   0x00000010   Data   RO         1101    shellCommand        cm_backtrace.o


    Execution Region MY_REGION (Exec base: 0x0801a984, Load base: 0x0801a984, Size: 0x00000020, Max: 0xffffffff, ABSOLUTE)

    Exec Addr    Load Addr    Size         Type   Attr      Idx    E Section Name        Object

    0x0801a984   0x0801a984   0x00000004   Data   RO          396    .initcall.1.core.init  temperatureinside.o
    0x0801a988   0x0801a988   0x00000004   Data   RO          622    .initcall.1.core.init  pwm.o
    0x0801a98c   0x0801a98c   0x00000004   Data   RO          783    .initcall.1.core.init  bsp_key.o
    0x0801a990   0x0801a990   0x0000000c   Data   RO          598    .initcall.2.app.init  initcall.o
    0x0801a99c   0x0801a99c   0x00000004   Data   RO          655    .initcall.2.app.init  bsp_i2cs0.o
    0x0801a9a0   0x0801a9a0   0x00000004   Data   RO          726    .initcall.2.app.init  bsp_i2cs1.o


    Execution Region RW_IRAM1 (Exec base: 0x20000000, Load base: 0x0801a9a4, Size: 0x00008e58, Max: 0x0000c000, ABSOLUTE, COMPRESSED[0x00000080])

    Exec Addr    Load Addr    Size         Type   Attr      Idx    E Section Name        Object

    0x20000000   COMPRESSED   0x00000004   Data   RW          246    .data               print_monitor.o
    0x20000004   COMPRESSED   0x00000001   Data   RW          327    .data               eeprom.o
    0x20000005   COMPRESSED   0x00000001   Data   RW          395    .data               temperatureinside.o
    0x20000006   COMPRESSED   0x00000002   PAD
    0x20000008   COMPRESSED   0x00000005   Data   RW          434    .data               bsp_uartcomm.o
    0x2000000d   COMPRESSED   0x00000003   PAD
    0x20000010   COMPRESSED   0x00000080   Data   RW          520    .data               bsp_usart1.o
    0x20000090   COMPRESSED   0x00000008   Data   RW          621    .data               pwm.o
    0x20000098   COMPRESSED   0x00000004   Data   RW          654    .data               bsp_i2cs0.o
    0x2000009c   COMPRESSED   0x00000004   Data   RW          725    .data               bsp_i2cs1.o
    0x200000a0   COMPRESSED   0x00000008   Data   RW          782    .data               bsp_key.o
    0x200000a8   COMPRESSED   0x00000054   Data   RW          818    .data               shell.o
    0x200000fc   COMPRESSED   0x00000004   PAD
    0x20000100   COMPRESSED   0x00000028   Data   RW          971    .data               main.o
    0x20000128   COMPRESSED   0x0000003c   Data   RW         1100    .data               cm_backtrace.o
    0x20000164   COMPRESSED   0x00000004   Data   RW         1144    .data               system_stm32f1xx.o
    0x20000168   COMPRESSED   0x00000040   Data   RW         1259    .data               tasks.o
    0x200001a8   COMPRESSED   0x00000014   Data   RW         1281    .data               timers.o
    0x200001bc   COMPRESSED   0x00000020   Data   RW         1311    .data               heap_4.o
    0x200001dc   COMPRESSED   0x0000000c   Data   RW         1326    .data               port.o
    0x200001e8   COMPRESSED   0x00000009   Data   RW         1620    .data               stm32f1xx_hal.o
    0x200001f1   COMPRESSED   0x00000003   PAD
    0x200001f4   COMPRESSED   0x00000004   Data   RW         1864    .data               mc_w.l(strtok.o)
    0x200001f8   COMPRESSED   0x00000004   Data   RW         2174    .data               mc_w.l(stdout.o)
    0x200001fc   COMPRESSED   0x00000004   Data   RW         2214    .data               mc_w.l(errno.o)
    0x20000200        -       0x00000400   Zero   RW          324    .bss                eeprom.o
    0x20000600        -       0x00000084   Zero   RW          393    .bss                temperatureinside.o
    0x20000684        -       0x0000026a   Zero   RW          519    .bss                bsp_usart1.o
    0x200008ee   COMPRESSED   0x00000002   PAD
    0x200008f0        -       0x00000078   Zero   RW          619    .bss                pwm.o
    0x20000968        -       0x00000038   Zero   RW          653    .bss                bsp_i2cs0.o
    0x200009a0        -       0x00000038   Zero   RW          724    .bss                bsp_i2cs1.o
    0x200009d8        -       0x0000001d   Zero   RW          815    .bss                shell.o
    0x200009f5   COMPRESSED   0x00000003   PAD
    0x200009f8        -       0x00000134   Zero   RW          888    .bss                shell_port.o
    0x20000b2c        -       0x000000c8   Zero   RW          968    .bss                main.o
    0x20000bf4        -       0x00000134   Zero   RW         1097    .bss                cm_backtrace.o
    0x20000d28        -       0x00000040   Zero   RW         1222    .bss                queue.o
    0x20000d68        -       0x000004c4   Zero   RW         1258    .bss                tasks.o
    0x2000122c        -       0x00000028   Zero   RW         1280    .bss                timers.o
    0x20001254        -       0x00007800   Zero   RW         1310    .bss                heap_4.o
    0x20008a54   COMPRESSED   0x00000004   PAD
    0x20008a58        -       0x00000400   Zero   RW         1132    STACK               startup_stm32f103xe.o


==============================================================================

Image component sizes


      Code (inc. data)   RO Data    RW Data    ZI Data      Debug   Object Name

       952        122         96          0          0     537266   api_utc.o
       556         60        214          0          0       4235   bsp_gpio.o
       320         14          0          0          0       2240   bsp_i2c.o
       156          0          0          0          0       1904   bsp_i2ccomm.o
       936         20          4          4         56       4929   bsp_i2cs0.o
       936         20          4          4         56       4929   bsp_i2cs1.o
       364         88          4          8          0       2211   bsp_key.o
       740         12          0          5          0       5572   bsp_uartcomm.o
       256         16          0        128        618      13937   bsp_usart1.o
      3012        576       2461         60        308       9241   cm_backtrace.o
        12          0          0          0          0        356   cmb_fault.o
       964        184        112          1       1024      10862   eeprom.o
         0          0          0          0          0      11824   event_groups.o
       572          0          0          0          0      12713   fifo.o
       952        550        137          0          0       2802   gpio_shell.o
       832         32          0         32      30720       4258   heap_4.o
        36          8         12          0          0       2175   initcall.o
       148          0          0          0          0       2014   list.o
      1182        348        299         40        200       7137   main.o
       826         38          0         12          0       7838   port.o
       180          4          0          4          0      17510   print_monitor.o
      1384        280         61          8        120       4883   pwm.o
      4216         20          0          0         64      22657   queue.o
      4992        140        750         84         29      25954   shell.o
       842          8          0          0          0       3728   shell_ext.o
        76         12          0          0        308       1565   shell_port.o
        36          8        304          0       1024        748   startup_stm32f103xe.o
       444         38          0          9          0       7577   stm32f1xx_hal.o
      3516         96          0          0          0       9590   stm32f1xx_hal_adc.o
      2576         70          0          0          0       6634   stm32f1xx_hal_adc_ex.o
       744         20          0          0          0      30634   stm32f1xx_hal_cortex.o
      3840         42          0          0          0       6673   stm32f1xx_hal_dma.o
      1268         40          0          0          0       3923   stm32f1xx_hal_gpio.o
     18832        302          0          0          0      41286   stm32f1xx_hal_i2c.o
       520         30          0          0          0       2108   stm32f1xx_hal_msp.o
      2380         88         18          0          0       5535   stm32f1xx_hal_rcc.o
       656         28         18          0          0       2228   stm32f1xx_hal_rcc_ex.o
       748          6          0          0          0       4561   stm32f1xx_hal_rtc_ex.o
     15164        258          0          0          0      42090   stm32f1xx_hal_tim.o
      5880        152          0          0          0      16883   stm32f1xx_hal_tim_ex.o
      6480         46          0          0          0      22504   stm32f1xx_hal_uart.o
       128         20          0          0          0       1926   stm32f1xx_it.o
       164         20         24          4          0       1401   system_stm32f1xx.o
      8120        390          0         64       1220      37541   tasks.o
       472         64         48          1        132       3754   temperatureinside.o
      1784         70          0         20         40      25608   timers.o

    ----------------------------------------------------------------------
     99202       4340       4616        500      35928     997944   Object Totals
         0          0         32          0          0          0   (incl. Generated)
         8          0         18         12          9          0   (incl. Padding)

    ----------------------------------------------------------------------

      Code (inc. data)   RO Data    RW Data    ZI Data      Debug   Library Member Name

        86          0          0          0          0          0   __dczerorl2.o
        28          0          0          0          0         68   _chval.o
       158          0          0          0          0         92   _strtoul.o
        26          0          0          0          0         80   atoi.o
         8          4        133          0          0         68   ctype_o.o
         0          0          0          0          0          0   entry.o
         0          0          0          0          0          0   entry10a.o
         0          0          0          0          0          0   entry11a.o
         4          0          0          0          0          0   entry12b.o
         8          4          0          0          0          0   entry2.o
         4          0          0          0          0          0   entry5.o
         0          0          0          0          0          0   entry7b.o
         0          0          0          0          0          0   entry8b.o
         8          4          0          0          0          0   entry9a.o
         8          4          0          4          0         68   errno.o
        30          0          0          0          0          0   handlers.o
        36          8          0          0          0         68   init.o
         0          0          0          0          0          0   iusefp.o
        30          0          0          0          0         68   llshl.o
        36          0          0          0          0         68   llsshr.o
        32          0          0          0          0         68   llushr.o
        36          0          0          0          0         68   memcpya.o
        36          0          0          0          0        108   memseta.o
      2342        102          0          0          0        764   printfa.o
         0          0          0          4          0          0   stdout.o
        28          0          0          0          0         76   strcmp.o
        14          0          0          0          0         68   strlen.o
        30          0          0          0          0         80   strncmp.o
        24          0          0          0          0         76   strncpy.o
        68          6          0          4          0         80   strtok.o
       112          0          0          0          0         88   strtol.o
        44          0          0          0          0         80   uidiv.o
        98          0          0          0          0         92   uldiv.o
        48          0          0          0          0         68   cdrcmple.o
        56          0          0          0          0         88   d2f.o
       334          0          0          0          0        148   dadd.o
       222          0          0          0          0        100   ddiv.o
       186          0          0          0          0        176   depilogue.o
        62          0          0          0          0         80   dfixi.o
        48          0          0          0          0         68   dfixul.o
        34          0          0          0          0         76   dflti.o
       228          0          0          0          0         96   dmul.o
        38          0          0          0          0         68   f2d.o
       124          0          0          0          0         88   fdiv.o
       110          0          0          0          0        168   fepilogue.o
        50          0          0          0          0         68   ffixi.o
        18          0          0          0          0         68   fflti.o
        10          0          0          0          0         68   ffltui.o
       100          0          0          0          0         76   fmul.o

    ----------------------------------------------------------------------
      5010        132        136         12          0       3732   Library Totals
         8          0          3          0          0          0   (incl. Padding)

    ----------------------------------------------------------------------

      Code (inc. data)   RO Data    RW Data    ZI Data      Debug   Library Name

      3334        132        133         12          0       2228   mc_w.l
      1668          0          0          0          0       1504   mf_w.l

    ----------------------------------------------------------------------
      5010        132        136         12          0       3732   Library Totals

    ----------------------------------------------------------------------

==============================================================================


      Code (inc. data)   RO Data    RW Data    ZI Data      Debug   

    104212       4472       4752        512      35928     995356   Grand Totals
    104212       4472       4752        128      35928     995356   ELF Image Totals (compressed)
    104212       4472       4752        128          0          0   ROM Totals

==============================================================================

    Total RO  Size (Code + RO Data)               108964 ( 106.41kB)
    Total RW  Size (RW Data + ZI Data)             36440 (  35.59kB)
    Total ROM Size (Code + RO Data + RW Data)     109092 ( 106.54kB)

==============================================================================

